Archive member included because of file (symbol)

c:/winavr-20100110/bin/../lib/gcc/avr/4.3.3/avr51\libgcc.a(_exit.o)
                              c:/winavr-20100110/bin/../lib/gcc/avr/4.3.3/../../../../avr/lib/avr51/crtusb1287.o (exit)
c:/winavr-20100110/bin/../lib/gcc/avr/4.3.3/avr51\libgcc.a(_clear_bss.o)
                              Lib/Ethernet.o (__do_clear_bss)
c:/winavr-20100110/bin/../lib/gcc/avr/4.3.3/../../../../avr/lib/avr51\libc.a(memcpy_P.o)
                              Lib/RNDIS.o (memcpy_P)
c:/winavr-20100110/bin/../lib/gcc/avr/4.3.3/../../../../avr/lib/avr51\libc.a(strcpy_P.o)
                              Lib/Webserver.o (strcpy_P)
c:/winavr-20100110/bin/../lib/gcc/avr/4.3.3/../../../../avr/lib/avr51\libc.a(strlen_P.o)
                              Lib/Webserver.o (strlen_P)
c:/winavr-20100110/bin/../lib/gcc/avr/4.3.3/../../../../avr/lib/avr51\libc.a(strncpy_P.o)
                              Lib/Webserver.o (strncpy_P)
c:/winavr-20100110/bin/../lib/gcc/avr/4.3.3/../../../../avr/lib/avr51\libc.a(memcmp.o)
                              Lib/Ethernet.o (memcmp)
c:/winavr-20100110/bin/../lib/gcc/avr/4.3.3/../../../../avr/lib/avr51\libc.a(memcpy.o)
                              Lib/TCP.o (memcpy)
c:/winavr-20100110/bin/../lib/gcc/avr/4.3.3/../../../../avr/lib/avr51\libc.a(memmove.o)
                              Lib/ICMP.o (memmove)
c:/winavr-20100110/bin/../lib/gcc/avr/4.3.3/../../../../avr/lib/avr51\libc.a(strncmp.o)
                              Lib/Webserver.o (strncmp)
c:/winavr-20100110/bin/../lib/gcc/avr/4.3.3/../../../../avr/lib/avr51\libc.a(iob.o)
                              RNDISEthernet.o (__iob)
c:/winavr-20100110/bin/../lib/gcc/avr/4.3.3/../../../../avr/lib/avr51\libc.a(eerd_byte_at90usb1287.o)
                              ../../../../LUFA/Drivers/USB/Core/AVR8/EndpointStream_AVR8.o (__eerd_byte_usb1287)
c:/winavr-20100110/bin/../lib/gcc/avr/4.3.3/../../../../avr/lib/avr51\libc.a(eeupd_byte_at90usb1287.o)
                              ../../../../LUFA/Drivers/USB/Core/AVR8/EndpointStream_AVR8.o (__eeupd_byte_usb1287)

Allocating common symbols
Common symbol       size              file

ConnectionStateTable
                    0x642             Lib/TCP.o
USB_IsInitialized   0x1               ../../../../LUFA/Drivers/USB/Core/USBTask.o
RNDISMessageBuffer  0x84              Lib/RNDIS.o
PortStateTable      0x5               Lib/TCP.o
USB_DeviceState     0x1               ../../../../LUFA/Drivers/USB/Core/USBTask.o
USB_Device_ConfigurationNumber
                    0x1               ../../../../LUFA/Drivers/USB/Core/DeviceStandardReq.o
FrameIN             0x5de             Lib/Ethernet.o
USB_Device_CurrentlySelfPowered
                    0x1               ../../../../LUFA/Drivers/USB/Core/DeviceStandardReq.o
USARTSerialStream   0xe               ../../../../LUFA/Drivers/Peripheral/AVR8/Serial_AVR8.o
USB_ControlRequest  0x8               ../../../../LUFA/Drivers/USB/Core/USBTask.o
FrameOUT            0x5de             Lib/Ethernet.o
USB_Device_RemoteWakeupEnabled
                    0x1               ../../../../LUFA/Drivers/USB/Core/DeviceStandardReq.o
__iob               0x6               c:/winavr-20100110/bin/../lib/gcc/avr/4.3.3/../../../../avr/lib/avr51\libc.a(iob.o)

Discarded input sections

 .data          0x00000000        0x0 c:/winavr-20100110/bin/../lib/gcc/avr/4.3.3/../../../../avr/lib/avr51/crtusb1287.o
 .bss           0x00000000        0x0 c:/winavr-20100110/bin/../lib/gcc/avr/4.3.3/../../../../avr/lib/avr51/crtusb1287.o
 .text          0x00000000        0x0 RNDISEthernet.o
 .bss           0x00000000        0x0 RNDISEthernet.o
 .text          0x00000000        0x0 Descriptors.o
 .data          0x00000000        0x0 Descriptors.o
 .bss           0x00000000        0x0 Descriptors.o
 .text          0x00000000        0x0 Lib/Ethernet.o
 .bss           0x00000000        0x0 Lib/Ethernet.o
 .text          0x00000000        0x0 Lib/ProtocolDecoders.o
 .data          0x00000000        0x0 Lib/ProtocolDecoders.o
 .bss           0x00000000        0x0 Lib/ProtocolDecoders.o
 .text          0x00000000        0x0 Lib/ICMP.o
 .data          0x00000000        0x0 Lib/ICMP.o
 .bss           0x00000000        0x0 Lib/ICMP.o
 .text          0x00000000        0x0 Lib/TCP.o
 .bss           0x00000000        0x0 Lib/TCP.o
 .text          0x00000000        0x0 Lib/UDP.o
 .data          0x00000000        0x0 Lib/UDP.o
 .bss           0x00000000        0x0 Lib/UDP.o
 .text          0x00000000        0x0 Lib/DHCP.o
 .data          0x00000000        0x0 Lib/DHCP.o
 .bss           0x00000000        0x0 Lib/DHCP.o
 .text          0x00000000        0x0 Lib/ARP.o
 .data          0x00000000        0x0 Lib/ARP.o
 .bss           0x00000000        0x0 Lib/ARP.o
 .text          0x00000000        0x0 Lib/IP.o
 .data          0x00000000        0x0 Lib/IP.o
 .bss           0x00000000        0x0 Lib/IP.o
 .text          0x00000000        0x0 Lib/Webserver.o
 .text          0x00000000        0x0 Lib/RNDIS.o
 .text          0x00000000        0x0 ../../../../LUFA/Drivers/USB/Core/AVR8/Device_AVR8.o
 .data          0x00000000        0x0 ../../../../LUFA/Drivers/USB/Core/AVR8/Device_AVR8.o
 .bss           0x00000000        0x0 ../../../../LUFA/Drivers/USB/Core/AVR8/Device_AVR8.o
 .text.USB_Device_SendRemoteWakeup
                0x00000000        0x0 ../../../../LUFA/Drivers/USB/Core/AVR8/Device_AVR8.o
 .text          0x00000000        0x0 ../../../../LUFA/Drivers/USB/Core/AVR8/Endpoint_AVR8.o
 .data          0x00000000        0x0 ../../../../LUFA/Drivers/USB/Core/AVR8/Endpoint_AVR8.o
 .bss           0x00000000        0x0 ../../../../LUFA/Drivers/USB/Core/AVR8/Endpoint_AVR8.o
 .text.Endpoint_ClearEndpoints
                0x00000000        0x0 ../../../../LUFA/Drivers/USB/Core/AVR8/Endpoint_AVR8.o
 .text          0x00000000        0x0 ../../../../LUFA/Drivers/USB/Core/AVR8/Host_AVR8.o
 .data          0x00000000        0x0 ../../../../LUFA/Drivers/USB/Core/AVR8/Host_AVR8.o
 .bss           0x00000000        0x0 ../../../../LUFA/Drivers/USB/Core/AVR8/Host_AVR8.o
 .text          0x00000000        0x0 ../../../../LUFA/Drivers/USB/Core/AVR8/Pipe_AVR8.o
 .data          0x00000000        0x0 ../../../../LUFA/Drivers/USB/Core/AVR8/Pipe_AVR8.o
 .bss           0x00000000        0x0 ../../../../LUFA/Drivers/USB/Core/AVR8/Pipe_AVR8.o
 .text          0x00000000        0x0 ../../../../LUFA/Drivers/USB/Core/AVR8/USBController_AVR8.o
 .data          0x00000000        0x0 ../../../../LUFA/Drivers/USB/Core/AVR8/USBController_AVR8.o
 .bss           0x00000000        0x0 ../../../../LUFA/Drivers/USB/Core/AVR8/USBController_AVR8.o
 .text.USB_Disable
                0x00000000        0x0 ../../../../LUFA/Drivers/USB/Core/AVR8/USBController_AVR8.o
 .text          0x00000000        0x0 ../../../../LUFA/Drivers/USB/Core/AVR8/USBInterrupt_AVR8.o
 .data          0x00000000        0x0 ../../../../LUFA/Drivers/USB/Core/AVR8/USBInterrupt_AVR8.o
 .bss           0x00000000        0x0 ../../../../LUFA/Drivers/USB/Core/AVR8/USBInterrupt_AVR8.o
 .text          0x00000000        0x0 ../../../../LUFA/Drivers/USB/Core/AVR8/EndpointStream_AVR8.o
 .data          0x00000000        0x0 ../../../../LUFA/Drivers/USB/Core/AVR8/EndpointStream_AVR8.o
 .bss           0x00000000        0x0 ../../../../LUFA/Drivers/USB/Core/AVR8/EndpointStream_AVR8.o
 .text.Endpoint_Write_Control_Stream_BE
                0x00000000        0x0 ../../../../LUFA/Drivers/USB/Core/AVR8/EndpointStream_AVR8.o
 .text.Endpoint_Read_Control_Stream_BE
                0x00000000        0x0 ../../../../LUFA/Drivers/USB/Core/AVR8/EndpointStream_AVR8.o
 .text.Endpoint_Write_Control_PStream_BE
                0x00000000        0x0 ../../../../LUFA/Drivers/USB/Core/AVR8/EndpointStream_AVR8.o
 .text.Endpoint_Read_Control_EStream_BE
                0x00000000        0x0 ../../../../LUFA/Drivers/USB/Core/AVR8/EndpointStream_AVR8.o
 .text.Endpoint_Read_Control_EStream_LE
                0x00000000        0x0 ../../../../LUFA/Drivers/USB/Core/AVR8/EndpointStream_AVR8.o
 .text.Endpoint_Write_Control_EStream_BE
                0x00000000        0x0 ../../../../LUFA/Drivers/USB/Core/AVR8/EndpointStream_AVR8.o
 .text.Endpoint_Write_Control_EStream_LE
                0x00000000        0x0 ../../../../LUFA/Drivers/USB/Core/AVR8/EndpointStream_AVR8.o
 .text.Endpoint_Null_Stream
                0x00000000        0x0 ../../../../LUFA/Drivers/USB/Core/AVR8/EndpointStream_AVR8.o
 .text.Endpoint_Discard_Stream
                0x00000000        0x0 ../../../../LUFA/Drivers/USB/Core/AVR8/EndpointStream_AVR8.o
 .text.Endpoint_Read_EStream_BE
                0x00000000        0x0 ../../../../LUFA/Drivers/USB/Core/AVR8/EndpointStream_AVR8.o
 .text.Endpoint_Read_EStream_LE
                0x00000000        0x0 ../../../../LUFA/Drivers/USB/Core/AVR8/EndpointStream_AVR8.o
 .text.Endpoint_Write_EStream_BE
                0x00000000        0x0 ../../../../LUFA/Drivers/USB/Core/AVR8/EndpointStream_AVR8.o
 .text.Endpoint_Write_EStream_LE
                0x00000000        0x0 ../../../../LUFA/Drivers/USB/Core/AVR8/EndpointStream_AVR8.o
 .text.Endpoint_Write_PStream_BE
                0x00000000        0x0 ../../../../LUFA/Drivers/USB/Core/AVR8/EndpointStream_AVR8.o
 .text.Endpoint_Write_PStream_LE
                0x00000000        0x0 ../../../../LUFA/Drivers/USB/Core/AVR8/EndpointStream_AVR8.o
 .text.Endpoint_Read_Stream_BE
                0x00000000        0x0 ../../../../LUFA/Drivers/USB/Core/AVR8/EndpointStream_AVR8.o
 .text.Endpoint_Write_Stream_BE
                0x00000000        0x0 ../../../../LUFA/Drivers/USB/Core/AVR8/EndpointStream_AVR8.o
 .text          0x00000000        0x0 ../../../../LUFA/Drivers/USB/Core/AVR8/PipeStream_AVR8.o
 .data          0x00000000        0x0 ../../../../LUFA/Drivers/USB/Core/AVR8/PipeStream_AVR8.o
 .bss           0x00000000        0x0 ../../../../LUFA/Drivers/USB/Core/AVR8/PipeStream_AVR8.o
 .text          0x00000000        0x0 ../../../../LUFA/Drivers/USB/Core/ConfigDescriptor.o
 .data          0x00000000        0x0 ../../../../LUFA/Drivers/USB/Core/ConfigDescriptor.o
 .bss           0x00000000        0x0 ../../../../LUFA/Drivers/USB/Core/ConfigDescriptor.o
 .text.USB_GetNextDescriptorOfType
                0x00000000        0x0 ../../../../LUFA/Drivers/USB/Core/ConfigDescriptor.o
 .text.USB_GetNextDescriptorOfTypeBefore
                0x00000000        0x0 ../../../../LUFA/Drivers/USB/Core/ConfigDescriptor.o
 .text.USB_GetNextDescriptorOfTypeAfter
                0x00000000        0x0 ../../../../LUFA/Drivers/USB/Core/ConfigDescriptor.o
 .text.USB_GetNextDescriptorComp
                0x00000000        0x0 ../../../../LUFA/Drivers/USB/Core/ConfigDescriptor.o
 .text          0x00000000        0x0 ../../../../LUFA/Drivers/USB/Core/DeviceStandardReq.o
 .data          0x00000000        0x0 ../../../../LUFA/Drivers/USB/Core/DeviceStandardReq.o
 .bss           0x00000000        0x0 ../../../../LUFA/Drivers/USB/Core/DeviceStandardReq.o
 .text          0x00000000        0x0 ../../../../LUFA/Drivers/USB/Core/Events.o
 .data          0x00000000        0x0 ../../../../LUFA/Drivers/USB/Core/Events.o
 .bss           0x00000000        0x0 ../../../../LUFA/Drivers/USB/Core/Events.o
 .text          0x00000000        0x0 ../../../../LUFA/Drivers/USB/Core/HostStandardReq.o
 .data          0x00000000        0x0 ../../../../LUFA/Drivers/USB/Core/HostStandardReq.o
 .bss           0x00000000        0x0 ../../../../LUFA/Drivers/USB/Core/HostStandardReq.o
 .text          0x00000000        0x0 ../../../../LUFA/Drivers/USB/Core/USBTask.o
 .data          0x00000000        0x0 ../../../../LUFA/Drivers/USB/Core/USBTask.o
 .bss           0x00000000        0x0 ../../../../LUFA/Drivers/USB/Core/USBTask.o
 .text          0x00000000        0x0 ../../../../LUFA/Drivers/USB/Class/Common/HIDParser.o
 .data          0x00000000        0x0 ../../../../LUFA/Drivers/USB/Class/Common/HIDParser.o
 .bss           0x00000000        0x0 ../../../../LUFA/Drivers/USB/Class/Common/HIDParser.o
 .text.USB_GetHIDReportItemInfo
                0x00000000        0x0 ../../../../LUFA/Drivers/USB/Class/Common/HIDParser.o
 .text.USB_SetHIDReportItemInfo
                0x00000000        0x0 ../../../../LUFA/Drivers/USB/Class/Common/HIDParser.o
 .text.USB_GetHIDReportSize
                0x00000000        0x0 ../../../../LUFA/Drivers/USB/Class/Common/HIDParser.o
 .text.USB_ProcessHIDReport
                0x00000000        0x0 ../../../../LUFA/Drivers/USB/Class/Common/HIDParser.o
 .text          0x00000000        0x0 ../../../../LUFA/Drivers/Peripheral/AVR8/Serial_AVR8.o
 .data          0x00000000        0x0 ../../../../LUFA/Drivers/Peripheral/AVR8/Serial_AVR8.o
 .bss           0x00000000        0x0 ../../../../LUFA/Drivers/Peripheral/AVR8/Serial_AVR8.o
 .text.Serial_getchar_Blocking
                0x00000000        0x0 ../../../../LUFA/Drivers/Peripheral/AVR8/Serial_AVR8.o
 .text.Serial_SendString_P
                0x00000000        0x0 ../../../../LUFA/Drivers/Peripheral/AVR8/Serial_AVR8.o
 .text.Serial_SendString
                0x00000000        0x0 ../../../../LUFA/Drivers/Peripheral/AVR8/Serial_AVR8.o
 .text.Serial_SendData
                0x00000000        0x0 ../../../../LUFA/Drivers/Peripheral/AVR8/Serial_AVR8.o
 .text          0x00000000        0x0 c:/winavr-20100110/bin/../lib/gcc/avr/4.3.3/avr51\libgcc.a(_exit.o)
 .data          0x00000000        0x0 c:/winavr-20100110/bin/../lib/gcc/avr/4.3.3/avr51\libgcc.a(_exit.o)
 .bss           0x00000000        0x0 c:/winavr-20100110/bin/../lib/gcc/avr/4.3.3/avr51\libgcc.a(_exit.o)
 .text.libgcc   0x00000000        0x0 c:/winavr-20100110/bin/../lib/gcc/avr/4.3.3/avr51\libgcc.a(_exit.o)
 .text          0x00000000        0x0 c:/winavr-20100110/bin/../lib/gcc/avr/4.3.3/avr51\libgcc.a(_clear_bss.o)
 .data          0x00000000        0x0 c:/winavr-20100110/bin/../lib/gcc/avr/4.3.3/avr51\libgcc.a(_clear_bss.o)
 .bss           0x00000000        0x0 c:/winavr-20100110/bin/../lib/gcc/avr/4.3.3/avr51\libgcc.a(_clear_bss.o)
 .text.libgcc   0x00000000        0x0 c:/winavr-20100110/bin/../lib/gcc/avr/4.3.3/avr51\libgcc.a(_clear_bss.o)
 .text          0x00000000        0x0 c:/winavr-20100110/bin/../lib/gcc/avr/4.3.3/../../../../avr/lib/avr51\libc.a(memcpy_P.o)
 .data          0x00000000        0x0 c:/winavr-20100110/bin/../lib/gcc/avr/4.3.3/../../../../avr/lib/avr51\libc.a(memcpy_P.o)
 .bss           0x00000000        0x0 c:/winavr-20100110/bin/../lib/gcc/avr/4.3.3/../../../../avr/lib/avr51\libc.a(memcpy_P.o)
 .text          0x00000000        0x0 c:/winavr-20100110/bin/../lib/gcc/avr/4.3.3/../../../../avr/lib/avr51\libc.a(strcpy_P.o)
 .data          0x00000000        0x0 c:/winavr-20100110/bin/../lib/gcc/avr/4.3.3/../../../../avr/lib/avr51\libc.a(strcpy_P.o)
 .bss           0x00000000        0x0 c:/winavr-20100110/bin/../lib/gcc/avr/4.3.3/../../../../avr/lib/avr51\libc.a(strcpy_P.o)
 .text          0x00000000        0x0 c:/winavr-20100110/bin/../lib/gcc/avr/4.3.3/../../../../avr/lib/avr51\libc.a(strlen_P.o)
 .data          0x00000000        0x0 c:/winavr-20100110/bin/../lib/gcc/avr/4.3.3/../../../../avr/lib/avr51\libc.a(strlen_P.o)
 .bss           0x00000000        0x0 c:/winavr-20100110/bin/../lib/gcc/avr/4.3.3/../../../../avr/lib/avr51\libc.a(strlen_P.o)
 .text          0x00000000        0x0 c:/winavr-20100110/bin/../lib/gcc/avr/4.3.3/../../../../avr/lib/avr51\libc.a(strncpy_P.o)
 .data          0x00000000        0x0 c:/winavr-20100110/bin/../lib/gcc/avr/4.3.3/../../../../avr/lib/avr51\libc.a(strncpy_P.o)
 .bss           0x00000000        0x0 c:/winavr-20100110/bin/../lib/gcc/avr/4.3.3/../../../../avr/lib/avr51\libc.a(strncpy_P.o)
 .text          0x00000000        0x0 c:/winavr-20100110/bin/../lib/gcc/avr/4.3.3/../../../../avr/lib/avr51\libc.a(memcmp.o)
 .data          0x00000000        0x0 c:/winavr-20100110/bin/../lib/gcc/avr/4.3.3/../../../../avr/lib/avr51\libc.a(memcmp.o)
 .bss           0x00000000        0x0 c:/winavr-20100110/bin/../lib/gcc/avr/4.3.3/../../../../avr/lib/avr51\libc.a(memcmp.o)
 .text          0x00000000        0x0 c:/winavr-20100110/bin/../lib/gcc/avr/4.3.3/../../../../avr/lib/avr51\libc.a(memcpy.o)
 .data          0x00000000        0x0 c:/winavr-20100110/bin/../lib/gcc/avr/4.3.3/../../../../avr/lib/avr51\libc.a(memcpy.o)
 .bss           0x00000000        0x0 c:/winavr-20100110/bin/../lib/gcc/avr/4.3.3/../../../../avr/lib/avr51\libc.a(memcpy.o)
 .text          0x00000000        0x0 c:/winavr-20100110/bin/../lib/gcc/avr/4.3.3/../../../../avr/lib/avr51\libc.a(memmove.o)
 .data          0x00000000        0x0 c:/winavr-20100110/bin/../lib/gcc/avr/4.3.3/../../../../avr/lib/avr51\libc.a(memmove.o)
 .bss           0x00000000        0x0 c:/winavr-20100110/bin/../lib/gcc/avr/4.3.3/../../../../avr/lib/avr51\libc.a(memmove.o)
 .text          0x00000000        0x0 c:/winavr-20100110/bin/../lib/gcc/avr/4.3.3/../../../../avr/lib/avr51\libc.a(strncmp.o)
 .data          0x00000000        0x0 c:/winavr-20100110/bin/../lib/gcc/avr/4.3.3/../../../../avr/lib/avr51\libc.a(strncmp.o)
 .bss           0x00000000        0x0 c:/winavr-20100110/bin/../lib/gcc/avr/4.3.3/../../../../avr/lib/avr51\libc.a(strncmp.o)
 .text          0x00000000        0x0 c:/winavr-20100110/bin/../lib/gcc/avr/4.3.3/../../../../avr/lib/avr51\libc.a(iob.o)
 .data          0x00000000        0x0 c:/winavr-20100110/bin/../lib/gcc/avr/4.3.3/../../../../avr/lib/avr51\libc.a(iob.o)
 .bss           0x00000000        0x0 c:/winavr-20100110/bin/../lib/gcc/avr/4.3.3/../../../../avr/lib/avr51\libc.a(iob.o)
 .text          0x00000000        0x0 c:/winavr-20100110/bin/../lib/gcc/avr/4.3.3/../../../../avr/lib/avr51\libc.a(eerd_byte_at90usb1287.o)
 .data          0x00000000        0x0 c:/winavr-20100110/bin/../lib/gcc/avr/4.3.3/../../../../avr/lib/avr51\libc.a(eerd_byte_at90usb1287.o)
 .bss           0x00000000        0x0 c:/winavr-20100110/bin/../lib/gcc/avr/4.3.3/../../../../avr/lib/avr51\libc.a(eerd_byte_at90usb1287.o)
 .text.avr-libc
                0x00000000        0x0 c:/winavr-20100110/bin/../lib/gcc/avr/4.3.3/../../../../avr/lib/avr51\libc.a(eerd_byte_at90usb1287.o)
 .text          0x00000000        0x0 c:/winavr-20100110/bin/../lib/gcc/avr/4.3.3/../../../../avr/lib/avr51\libc.a(eeupd_byte_at90usb1287.o)
 .data          0x00000000        0x0 c:/winavr-20100110/bin/../lib/gcc/avr/4.3.3/../../../../avr/lib/avr51\libc.a(eeupd_byte_at90usb1287.o)
 .bss           0x00000000        0x0 c:/winavr-20100110/bin/../lib/gcc/avr/4.3.3/../../../../avr/lib/avr51\libc.a(eeupd_byte_at90usb1287.o)
 .text.avr-libc
                0x00000000        0x0 c:/winavr-20100110/bin/../lib/gcc/avr/4.3.3/../../../../avr/lib/avr51\libc.a(eeupd_byte_at90usb1287.o)

Memory Configuration

Name             Origin             Length             Attributes
text             0x00000000         0x00020000         xr
data             0x00800060         0x0000ffa0         rw !x
eeprom           0x00810000         0x00010000         rw !x
fuse             0x00820000         0x00000400         rw !x
lock             0x00830000         0x00000400         rw !x
signature        0x00840000         0x00000400         rw !x
*default*        0x00000000         0xffffffff

Linker script and memory map

Address of section .data set to 0x800100
LOAD c:/winavr-20100110/bin/../lib/gcc/avr/4.3.3/../../../../avr/lib/avr51/crtusb1287.o
LOAD RNDISEthernet.o
LOAD Descriptors.o
LOAD Lib/Ethernet.o
LOAD Lib/ProtocolDecoders.o
LOAD Lib/ICMP.o
LOAD Lib/TCP.o
LOAD Lib/UDP.o
LOAD Lib/DHCP.o
LOAD Lib/ARP.o
LOAD Lib/IP.o
LOAD Lib/Webserver.o
LOAD Lib/RNDIS.o
LOAD ../../../../LUFA/Drivers/USB/Core/AVR8/Device_AVR8.o
LOAD ../../../../LUFA/Drivers/USB/Core/AVR8/Endpoint_AVR8.o
LOAD ../../../../LUFA/Drivers/USB/Core/AVR8/Host_AVR8.o
LOAD ../../../../LUFA/Drivers/USB/Core/AVR8/Pipe_AVR8.o
LOAD ../../../../LUFA/Drivers/USB/Core/AVR8/USBController_AVR8.o
LOAD ../../../../LUFA/Drivers/USB/Core/AVR8/USBInterrupt_AVR8.o
LOAD ../../../../LUFA/Drivers/USB/Core/AVR8/EndpointStream_AVR8.o
LOAD ../../../../LUFA/Drivers/USB/Core/AVR8/PipeStream_AVR8.o
LOAD ../../../../LUFA/Drivers/USB/Core/ConfigDescriptor.o
LOAD ../../../../LUFA/Drivers/USB/Core/DeviceStandardReq.o
LOAD ../../../../LUFA/Drivers/USB/Core/Events.o
LOAD ../../../../LUFA/Drivers/USB/Core/HostStandardReq.o
LOAD ../../../../LUFA/Drivers/USB/Core/USBTask.o
LOAD ../../../../LUFA/Drivers/USB/Class/Common/HIDParser.o
LOAD ../../../../LUFA/Drivers/Peripheral/AVR8/Serial_AVR8.o
LOAD c:/winavr-20100110/bin/../lib/gcc/avr/4.3.3/../../../../avr/lib/avr51\libm.a
LOAD c:/winavr-20100110/bin/../lib/gcc/avr/4.3.3/avr51\libgcc.a
LOAD c:/winavr-20100110/bin/../lib/gcc/avr/4.3.3/../../../../avr/lib/avr51\libc.a
LOAD c:/winavr-20100110/bin/../lib/gcc/avr/4.3.3/avr51\libgcc.a

.hash
 *(.hash)

.dynsym
 *(.dynsym)

.dynstr
 *(.dynstr)

.gnu.version
 *(.gnu.version)

.gnu.version_d
 *(.gnu.version_d)

.gnu.version_r
 *(.gnu.version_r)

.rel.init
 *(.rel.init)

.rela.init
 *(.rela.init)

.rel.text
 *(.rel.text)
 *(.rel.text.*)
 *(.rel.gnu.linkonce.t*)

.rela.text
 *(.rela.text)
 *(.rela.text.*)
 *(.rela.gnu.linkonce.t*)

.rel.fini
 *(.rel.fini)

.rela.fini
 *(.rela.fini)

.rel.rodata
 *(.rel.rodata)
 *(.rel.rodata.*)
 *(.rel.gnu.linkonce.r*)

.rela.rodata
 *(.rela.rodata)
 *(.rela.rodata.*)
 *(.rela.gnu.linkonce.r*)

.rel.data
 *(.rel.data)
 *(.rel.data.*)
 *(.rel.gnu.linkonce.d*)

.rela.data
 *(.rela.data)
 *(.rela.data.*)
 *(.rela.gnu.linkonce.d*)

.rel.ctors
 *(.rel.ctors)

.rela.ctors
 *(.rela.ctors)

.rel.dtors
 *(.rel.dtors)

.rela.dtors
 *(.rela.dtors)

.rel.got
 *(.rel.got)

.rela.got
 *(.rela.got)

.rel.bss
 *(.rel.bss)

.rela.bss
 *(.rela.bss)

.rel.plt
 *(.rel.plt)

.rela.plt
 *(.rela.plt)

.text           0x00000000     0x2d8e
 *(.vectors)
 .vectors       0x00000000       0x98 c:/winavr-20100110/bin/../lib/gcc/avr/4.3.3/../../../../avr/lib/avr51/crtusb1287.o
                0x00000000                __vectors
                0x00000000                __vector_default
 *(.vectors)
 *(.progmem.gcc*)
 *(.progmem*)
 .progmem.data  0x00000098       0x98 Descriptors.o
                0x000000ec                ManufacturerString
                0x000000e8                LanguageString
                0x00000098                DeviceDescriptor
                0x00000106                ProductString
                0x000000aa                ConfigurationDescriptor
 .progmem.data  0x00000130      0x286 Lib/Webserver.o
                0x00000130                HTTP200Header
                0x00000184                HTTP404Header
                0x000001c6                HTTPPage
 .progmem.data  0x000003b6       0x85 Lib/RNDIS.o
                0x0000043c                . = ALIGN (0x2)
 *fill*         0x0000043b        0x1 00
                0x0000043c                __trampolines_start = .
 *(.trampolines)
 .trampolines   0x0000043c        0x0 linker stubs
 *(.trampolines*)
                0x0000043c                __trampolines_end = .
 *(.jumptables)
 *(.jumptables*)
 *(.lowtext)
 *(.lowtext*)
                0x0000043c                __ctors_start = .
 *(.ctors)
                0x0000043c                __ctors_end = .
                0x0000043c                __dtors_start = .
 *(.dtors)
                0x0000043c                __dtors_end = .
 SORT(*)(.ctors)
 SORT(*)(.dtors)
 *(.init0)
 .init0         0x0000043c        0x0 c:/winavr-20100110/bin/../lib/gcc/avr/4.3.3/../../../../avr/lib/avr51/crtusb1287.o
                0x0000043c                __init
 *(.init0)
 *(.init1)
 *(.init1)
 *(.init2)
 .init2         0x0000043c        0xc c:/winavr-20100110/bin/../lib/gcc/avr/4.3.3/../../../../avr/lib/avr51/crtusb1287.o
 *(.init2)
 *(.init3)
 *(.init3)
 *(.init4)
 .init4         0x00000448       0x1a c:/winavr-20100110/bin/../lib/gcc/avr/4.3.3/../../../../avr/lib/avr51/crtusb1287.o
                0x00000448                __do_copy_data
 .init4         0x00000462       0x10 c:/winavr-20100110/bin/../lib/gcc/avr/4.3.3/avr51\libgcc.a(_clear_bss.o)
                0x00000462                __do_clear_bss
 *(.init4)
 *(.init5)
 *(.init5)
 *(.init6)
 *(.init6)
 *(.init7)
 *(.init7)
 *(.init8)
 *(.init8)
 *(.init9)
 .init9         0x00000472        0x6 c:/winavr-20100110/bin/../lib/gcc/avr/4.3.3/../../../../avr/lib/avr51/crtusb1287.o
 *(.init9)
 *(.text)
 .text          0x00000478        0x2 c:/winavr-20100110/bin/../lib/gcc/avr/4.3.3/../../../../avr/lib/avr51/crtusb1287.o
                0x00000478                __vector_22
                0x00000478                __vector_28
                0x00000478                __vector_1
                0x00000478                __vector_32
                0x00000478                __vector_34
                0x00000478                __vector_24
                0x00000478                __vector_12
                0x00000478                __bad_interrupt
                0x00000478                __vector_6
                0x00000478                __vector_31
                0x00000478                __vector_35
                0x00000478                __vector_3
                0x00000478                __vector_23
                0x00000478                __vector_30
                0x00000478                __vector_25
                0x00000478                __vector_11
                0x00000478                __vector_13
                0x00000478                __vector_17
                0x00000478                __vector_19
                0x00000478                __vector_7
                0x00000478                __vector_27
                0x00000478                __vector_5
                0x00000478                __vector_33
                0x00000478                __vector_37
                0x00000478                __vector_4
                0x00000478                __vector_9
                0x00000478                __vector_2
                0x00000478                __vector_21
                0x00000478                __vector_15
                0x00000478                __vector_36
                0x00000478                __vector_29
                0x00000478                __vector_8
                0x00000478                __vector_26
                0x00000478                __vector_14
                0x00000478                __vector_16
                0x00000478                __vector_18
                0x00000478                __vector_20
                0x0000047a                . = ALIGN (0x2)
 *(.text.*)
 .text.EVENT_USB_Device_Connect
                0x0000047a        0xa RNDISEthernet.o
                0x0000047a                EVENT_USB_Device_Connect
 .text.EVENT_USB_Device_Disconnect
                0x00000484        0xa RNDISEthernet.o
                0x00000484                EVENT_USB_Device_Disconnect
 .text.Ethernet_Task
                0x0000048e       0x28 RNDISEthernet.o
                0x0000048e                Ethernet_Task
 .text.RNDIS_Task
                0x000004b6      0x1a0 RNDISEthernet.o
                0x000004b6                RNDIS_Task
 .text.EVENT_USB_Device_ControlRequest
                0x00000656       0xb0 RNDISEthernet.o
                0x00000656                EVENT_USB_Device_ControlRequest
 .text.EVENT_USB_Device_ConfigurationChanged
                0x00000706       0x58 RNDISEthernet.o
                0x00000706                EVENT_USB_Device_ConfigurationChanged
 .text.SetupHardware
                0x0000075e       0x96 RNDISEthernet.o
                0x0000075e                SetupHardware
 .text.main     0x000007f4       0x1e RNDISEthernet.o
                0x000007f4                main
 .text.CALLBACK_USB_GetDescriptor
                0x00000812       0x5c Descriptors.o
                0x00000812                CALLBACK_USB_GetDescriptor
 .text.Ethernet_Checksum16
                0x0000086e       0x64 Lib/Ethernet.o
                0x0000086e                Ethernet_Checksum16
 .text.Ethernet_ProcessPacket
                0x000008d2       0xdc Lib/Ethernet.o
                0x000008d2                Ethernet_ProcessPacket
 .text.DecodeEthernetFrameHeader
                0x000009ae        0x2 Lib/ProtocolDecoders.o
                0x000009ae                DecodeEthernetFrameHeader
 .text.DecodeARPHeader
                0x000009b0        0x2 Lib/ProtocolDecoders.o
                0x000009b0                DecodeARPHeader
 .text.DecodeIPHeader
                0x000009b2        0x2 Lib/ProtocolDecoders.o
                0x000009b2                DecodeIPHeader
 .text.DecodeICMPHeader
                0x000009b4        0x2 Lib/ProtocolDecoders.o
                0x000009b4                DecodeICMPHeader
 .text.DecodeTCPHeader
                0x000009b6        0x2 Lib/ProtocolDecoders.o
                0x000009b6                DecodeTCPHeader
 .text.DecodeUDPHeader
                0x000009b8        0x2 Lib/ProtocolDecoders.o
                0x000009b8                DecodeUDPHeader
 .text.DecodeDHCPHeader
                0x000009ba        0x2 Lib/ProtocolDecoders.o
                0x000009ba                DecodeDHCPHeader
 .text.ICMP_ProcessICMPPacket
                0x000009bc       0x72 Lib/ICMP.o
                0x000009bc                ICMP_ProcessICMPPacket
 .text.TCP_Init
                0x00000a2e       0x14 Lib/TCP.o
                0x00000a2e                TCP_Init
 .text.TCP_SetPortState
                0x00000a42       0x4a Lib/TCP.o
                0x00000a42                TCP_SetPortState
 .text.TCP_GetPortState
                0x00000a8c       0x18 Lib/TCP.o
                0x00000a8c                TCP_GetPortState
 .text.SwapEndian_32
                0x00000aa4        0xc Lib/TCP.o
 .text.TCP_Checksum16
                0x00000ab0      0x13a Lib/TCP.o
 .text.TCP_GetConnectionInfo
                0x00000bea       0xd4 Lib/TCP.o
                0x00000bea                TCP_GetConnectionInfo
 .text.TCP_GetConnectionState
                0x00000cbe       0xd2 Lib/TCP.o
                0x00000cbe                TCP_GetConnectionState
 .text.TCP_SetConnectionState
                0x00000d90      0x154 Lib/TCP.o
                0x00000d90                TCP_SetConnectionState
 .text.TCP_ProcessTCPPacket
                0x00000ee4      0x54a Lib/TCP.o
                0x00000ee4                TCP_ProcessTCPPacket
 .text.TCP_Task
                0x0000142e      0x312 Lib/TCP.o
                0x0000142e                TCP_Task
 .text.UDP_ProcessUDPPacket
                0x00001740       0x74 Lib/UDP.o
                0x00001740                UDP_ProcessUDPPacket
 .text.DHCP_ProcessDHCPPacket
                0x000017b4      0x1a8 Lib/DHCP.o
                0x000017b4                DHCP_ProcessDHCPPacket
 .text.ARP_ProcessARPPacket
                0x0000195c       0xfc Lib/ARP.o
                0x0000195c                ARP_ProcessARPPacket
 .text.IP_ProcessIPPacket
                0x00001a58      0x10e Lib/IP.o
                0x00001a58                IP_ProcessIPPacket
 .text.IsHTTPCommand
                0x00001b66       0x20 Lib/Webserver.o
 .text.Webserver_ApplicationCallback
                0x00001b86      0x1ac Lib/Webserver.o
                0x00001b86                Webserver_ApplicationCallback
 .text.Webserver_Init
                0x00001d32        0xe Lib/Webserver.o
                0x00001d32                Webserver_Init
 .text.ProcessRNDISControlMessage
                0x00001d40      0x5a6 Lib/RNDIS.o
                0x00001d40                ProcessRNDISControlMessage
 .text.Endpoint_ConfigureEndpoint_Prv
                0x000022e6       0x6a ../../../../LUFA/Drivers/USB/Core/AVR8/Endpoint_AVR8.o
                0x000022e6                Endpoint_ConfigureEndpoint_Prv
 .text.Endpoint_ClearStatusStage
                0x00002350       0x42 ../../../../LUFA/Drivers/USB/Core/AVR8/Endpoint_AVR8.o
                0x00002350                Endpoint_ClearStatusStage
 .text.Endpoint_WaitUntilReady
                0x00002392       0x64 ../../../../LUFA/Drivers/USB/Core/AVR8/Endpoint_AVR8.o
                0x00002392                Endpoint_WaitUntilReady
 .text.USB_ResetInterface
                0x000023f6       0x92 ../../../../LUFA/Drivers/USB/Core/AVR8/USBController_AVR8.o
                0x000023f6                USB_ResetInterface
 .text.USB_Init
                0x00002488       0x12 ../../../../LUFA/Drivers/USB/Core/AVR8/USBController_AVR8.o
                0x00002488                USB_Init
 .text.USB_INT_DisableAllInterrupts
                0x0000249a       0x10 ../../../../LUFA/Drivers/USB/Core/AVR8/USBInterrupt_AVR8.o
                0x0000249a                USB_INT_DisableAllInterrupts
 .text.USB_INT_ClearAllInterrupts
                0x000024aa        0xa ../../../../LUFA/Drivers/USB/Core/AVR8/USBInterrupt_AVR8.o
                0x000024aa                USB_INT_ClearAllInterrupts
 .text.__vector_10
                0x000024b4      0x194 ../../../../LUFA/Drivers/USB/Core/AVR8/USBInterrupt_AVR8.o
                0x000024b4                __vector_10
 .text.Endpoint_Write_Control_Stream_LE
                0x00002648       0xbc ../../../../LUFA/Drivers/USB/Core/AVR8/EndpointStream_AVR8.o
                0x00002648                Endpoint_Write_Control_Stream_LE
 .text.Endpoint_Read_Control_Stream_LE
                0x00002704       0x82 ../../../../LUFA/Drivers/USB/Core/AVR8/EndpointStream_AVR8.o
                0x00002704                Endpoint_Read_Control_Stream_LE
 .text.Endpoint_Write_Control_PStream_LE
                0x00002786       0xc2 ../../../../LUFA/Drivers/USB/Core/AVR8/EndpointStream_AVR8.o
                0x00002786                Endpoint_Write_Control_PStream_LE
 .text.Endpoint_Read_Stream_LE
                0x00002848       0xa4 ../../../../LUFA/Drivers/USB/Core/AVR8/EndpointStream_AVR8.o
                0x00002848                Endpoint_Read_Stream_LE
 .text.Endpoint_Write_Stream_LE
                0x000028ec       0xa4 ../../../../LUFA/Drivers/USB/Core/AVR8/EndpointStream_AVR8.o
                0x000028ec                Endpoint_Write_Stream_LE
 .text.USB_Device_ProcessControlRequest
                0x00002990      0x2dc ../../../../LUFA/Drivers/USB/Core/DeviceStandardReq.o
                0x00002990                USB_Device_ProcessControlRequest
 .text.USB_Event_Stub
                0x00002c6c        0x2 ../../../../LUFA/Drivers/USB/Core/Events.o
                0x00002c6c                EVENT_USB_Device_WakeUp
                0x00002c6c                USB_Event_Stub
                0x00002c6c                EVENT_USB_Device_Suspend
                0x00002c6c                EVENT_USB_Device_StartOfFrame
                0x00002c6c                EVENT_USB_Device_Reset
 .text.USB_USBTask
                0x00002c6e       0x26 ../../../../LUFA/Drivers/USB/Core/USBTask.o
                0x00002c6e                USB_USBTask
 .text.Serial_putchar
                0x00002c94       0x14 ../../../../LUFA/Drivers/Peripheral/AVR8/Serial_AVR8.o
                0x00002c94                Serial_putchar
 .text.Serial_getchar
                0x00002ca8       0x28 ../../../../LUFA/Drivers/Peripheral/AVR8/Serial_AVR8.o
                0x00002ca8                Serial_getchar
 .text.avr-libc
                0x00002cd0       0x12 c:/winavr-20100110/bin/../lib/gcc/avr/4.3.3/../../../../avr/lib/avr51\libc.a(memcpy_P.o)
                0x00002cd0                memcpy_P
 .text.avr-libc
                0x00002ce2        0xe c:/winavr-20100110/bin/../lib/gcc/avr/4.3.3/../../../../avr/lib/avr51\libc.a(strcpy_P.o)
                0x00002ce2                strcpy_P
 .text.avr-libc
                0x00002cf0       0x12 c:/winavr-20100110/bin/../lib/gcc/avr/4.3.3/../../../../avr/lib/avr51\libc.a(strlen_P.o)
                0x00002cf0                strlen_P
 .text.avr-libc
                0x00002d02       0x1e c:/winavr-20100110/bin/../lib/gcc/avr/4.3.3/../../../../avr/lib/avr51\libc.a(strncpy_P.o)
                0x00002d02                strncpy_P
 .text.avr-libc
                0x00002d20       0x1a c:/winavr-20100110/bin/../lib/gcc/avr/4.3.3/../../../../avr/lib/avr51\libc.a(memcmp.o)
                0x00002d20                memcmp
 .text.avr-libc
                0x00002d3a       0x12 c:/winavr-20100110/bin/../lib/gcc/avr/4.3.3/../../../../avr/lib/avr51\libc.a(memcpy.o)
                0x00002d3a                memcpy
 .text.avr-libc
                0x00002d4c       0x22 c:/winavr-20100110/bin/../lib/gcc/avr/4.3.3/../../../../avr/lib/avr51\libc.a(memmove.o)
                0x00002d4c                memmove
 .text.avr-libc
                0x00002d6e       0x1c c:/winavr-20100110/bin/../lib/gcc/avr/4.3.3/../../../../avr/lib/avr51\libc.a(strncmp.o)
                0x00002d6e                strncmp
                0x00002d8a                . = ALIGN (0x2)
 *(.fini9)
 .fini9         0x00002d8a        0x0 c:/winavr-20100110/bin/../lib/gcc/avr/4.3.3/avr51\libgcc.a(_exit.o)
                0x00002d8a                exit
                0x00002d8a                _exit
 *(.fini9)
 *(.fini8)
 *(.fini8)
 *(.fini7)
 *(.fini7)
 *(.fini6)
 *(.fini6)
 *(.fini5)
 *(.fini5)
 *(.fini4)
 *(.fini4)
 *(.fini3)
 *(.fini3)
 *(.fini2)
 *(.fini2)
 *(.fini1)
 *(.fini1)
 *(.fini0)
 .fini0         0x00002d8a        0x4 c:/winavr-20100110/bin/../lib/gcc/avr/4.3.3/avr51\libgcc.a(_exit.o)
 *(.fini0)
                0x00002d8e                _etext = .

.data           0x00800100       0x46 load address 0x00002d8e
                0x00800100                PROVIDE (__data_start, .)
 *(.data)
 .data          0x00800100        0x8 RNDISEthernet.o
 .data          0x00800108       0x18 Lib/Ethernet.o
                0x00800108                ServerMACAddress
                0x0080011c                ClientIPAddress
                0x00800112                BroadcastMACAddress
                0x0080010e                ServerIPAddress
                0x00800118                BroadcastIPAddress
 .data          0x00800120        0x6 Lib/TCP.o
 .data          0x00800126       0x1e Lib/Webserver.o
 .data          0x00800144        0x2 Lib/RNDIS.o
                0x00800144                MessageHeader
 *(.data*)
 *(.rodata)
 *(.rodata*)
 *(.gnu.linkonce.d*)
                0x00800146                . = ALIGN (0x2)
                0x00800146                _edata = .
                0x00800146                PROVIDE (__data_end, .)

.bss            0x00800146     0x12af
                0x00800146                PROVIDE (__bss_start, .)
 *(.bss)
 .bss           0x00800146        0x1 Lib/Webserver.o
 .bss           0x00800147        0x6 Lib/RNDIS.o
                0x00800147                ResponseReady
                0x00800149                CurrPacketFilter
                0x00800148                CurrRNDISState
 *(.bss*)
 *(COMMON)
 COMMON         0x0080014d      0xbbc Lib/Ethernet.o
                0x0080014d                FrameIN
                0x0080072b                FrameOUT
 COMMON         0x00800d09      0x647 Lib/TCP.o
                0x00800d09                ConnectionStateTable
                0x0080134b                PortStateTable
 COMMON         0x00801350       0x84 Lib/RNDIS.o
                0x00801350                RNDISMessageBuffer
 COMMON         0x008013d4        0x3 ../../../../LUFA/Drivers/USB/Core/DeviceStandardReq.o
                0x008013d4                USB_Device_ConfigurationNumber
                0x008013d5                USB_Device_CurrentlySelfPowered
                0x008013d6                USB_Device_RemoteWakeupEnabled
 COMMON         0x008013d7        0xa ../../../../LUFA/Drivers/USB/Core/USBTask.o
                0x008013d7                USB_IsInitialized
                0x008013d8                USB_DeviceState
                0x008013d9                USB_ControlRequest
 COMMON         0x008013e1        0xe ../../../../LUFA/Drivers/Peripheral/AVR8/Serial_AVR8.o
                0x008013e1                USARTSerialStream
 COMMON         0x008013ef        0x6 c:/winavr-20100110/bin/../lib/gcc/avr/4.3.3/../../../../avr/lib/avr51\libc.a(iob.o)
                0x008013ef                __iob
                0x008013f5                PROVIDE (__bss_end, .)
                0x00002d8e                __data_load_start = LOADADDR (.data)
                0x00002dd4                __data_load_end = (__data_load_start + SIZEOF (.data))

.noinit         0x008013f5        0x0
                0x008013f5                PROVIDE (__noinit_start, .)
 *(.noinit*)
                0x008013f5                PROVIDE (__noinit_end, .)
                0x008013f5                _end = .
                0x008013f5                PROVIDE (__heap_start, .)

.eeprom         0x00810000        0x0
 *(.eeprom*)
                0x00810000                __eeprom_end = .

.fuse
 *(.fuse)
 *(.lfuse)
 *(.hfuse)
 *(.efuse)

.lock
 *(.lock*)

.signature
 *(.signature*)

.stab
 *(.stab)

.stabstr
 *(.stabstr)

.stab.excl
 *(.stab.excl)

.stab.exclstr
 *(.stab.exclstr)

.stab.index
 *(.stab.index)

.stab.indexstr
 *(.stab.indexstr)

.comment
 *(.comment)

.debug
 *(.debug)

.line
 *(.line)

.debug_srcinfo
 *(.debug_srcinfo)

.debug_sfnames
 *(.debug_sfnames)

.debug_aranges  0x00000000      0x4e0
 *(.debug_aranges)
 .debug_aranges
                0x00000000       0x58 RNDISEthernet.o
 .debug_aranges
                0x00000058       0x20 Descriptors.o
 .debug_aranges
                0x00000078       0x28 Lib/Ethernet.o
 .debug_aranges
                0x000000a0       0x50 Lib/ProtocolDecoders.o
 .debug_aranges
                0x000000f0       0x20 Lib/ICMP.o
 .debug_aranges
                0x00000110       0x68 Lib/TCP.o
 .debug_aranges
                0x00000178       0x20 Lib/UDP.o
 .debug_aranges
                0x00000198       0x20 Lib/DHCP.o
 .debug_aranges
                0x000001b8       0x20 Lib/ARP.o
 .debug_aranges
                0x000001d8       0x20 Lib/IP.o
 .debug_aranges
                0x000001f8       0x30 Lib/Webserver.o
 .debug_aranges
                0x00000228       0x20 Lib/RNDIS.o
 .debug_aranges
                0x00000248       0x20 ../../../../LUFA/Drivers/USB/Core/AVR8/Device_AVR8.o
 .debug_aranges
                0x00000268       0x38 ../../../../LUFA/Drivers/USB/Core/AVR8/Endpoint_AVR8.o
 .debug_aranges
                0x000002a0       0x30 ../../../../LUFA/Drivers/USB/Core/AVR8/USBController_AVR8.o
 .debug_aranges
                0x000002d0       0x30 ../../../../LUFA/Drivers/USB/Core/AVR8/USBInterrupt_AVR8.o
 .debug_aranges
                0x00000300       0xc8 ../../../../LUFA/Drivers/USB/Core/AVR8/EndpointStream_AVR8.o
 .debug_aranges
                0x000003c8       0x38 ../../../../LUFA/Drivers/USB/Core/ConfigDescriptor.o
 .debug_aranges
                0x00000400       0x20 ../../../../LUFA/Drivers/USB/Core/DeviceStandardReq.o
 .debug_aranges
                0x00000420       0x20 ../../../../LUFA/Drivers/USB/Core/Events.o
 .debug_aranges
                0x00000440       0x20 ../../../../LUFA/Drivers/USB/Core/USBTask.o
 .debug_aranges
                0x00000460       0x38 ../../../../LUFA/Drivers/USB/Class/Common/HIDParser.o
 .debug_aranges
                0x00000498       0x48 ../../../../LUFA/Drivers/Peripheral/AVR8/Serial_AVR8.o

.debug_pubnames
                0x00000000      0xcec
 *(.debug_pubnames)
 .debug_pubnames
                0x00000000       0xd9 RNDISEthernet.o
 .debug_pubnames
                0x000000d9       0x9e Descriptors.o
 .debug_pubnames
                0x00000177       0xca Lib/Ethernet.o
 .debug_pubnames
                0x00000241       0xa9 Lib/ProtocolDecoders.o
 .debug_pubnames
                0x000002ea       0x2d Lib/ICMP.o
 .debug_pubnames
                0x00000317       0xeb Lib/TCP.o
 .debug_pubnames
                0x00000402       0x2b Lib/UDP.o
 .debug_pubnames
                0x0000042d       0x2d Lib/DHCP.o
 .debug_pubnames
                0x0000045a       0x2b Lib/ARP.o
 .debug_pubnames
                0x00000485       0x29 Lib/IP.o
 .debug_pubnames
                0x000004ae       0x78 Lib/Webserver.o
 .debug_pubnames
                0x00000526       0x94 Lib/RNDIS.o
 .debug_pubnames
                0x000005ba       0x32 ../../../../LUFA/Drivers/USB/Core/AVR8/Device_AVR8.o
 .debug_pubnames
                0x000005ec       0x8b ../../../../LUFA/Drivers/USB/Core/AVR8/Endpoint_AVR8.o
 .debug_pubnames
                0x00000677       0x46 ../../../../LUFA/Drivers/USB/Core/AVR8/USBController_AVR8.o
 .debug_pubnames
                0x000006bd       0x62 ../../../../LUFA/Drivers/USB/Core/AVR8/USBInterrupt_AVR8.o
 .debug_pubnames
                0x0000071f      0x2df ../../../../LUFA/Drivers/USB/Core/AVR8/EndpointStream_AVR8.o
 .debug_pubnames
                0x000009fe       0x9b ../../../../LUFA/Drivers/USB/Core/ConfigDescriptor.o
 .debug_pubnames
                0x00000a99       0xa1 ../../../../LUFA/Drivers/USB/Core/DeviceStandardReq.o
 .debug_pubnames
                0x00000b3a       0x25 ../../../../LUFA/Drivers/USB/Core/Events.o
 .debug_pubnames
                0x00000b5f       0x63 ../../../../LUFA/Drivers/USB/Core/USBTask.o
 .debug_pubnames
                0x00000bc2       0x7e ../../../../LUFA/Drivers/USB/Class/Common/HIDParser.o
 .debug_pubnames
                0x00000c40       0xac ../../../../LUFA/Drivers/Peripheral/AVR8/Serial_AVR8.o

.debug_info     0x00000000     0x81c7
 *(.debug_info)
 .debug_info    0x00000000      0x8fc RNDISEthernet.o
 .debug_info    0x000008fc      0x68d Descriptors.o
 .debug_info    0x00000f89      0x49b Lib/Ethernet.o
 .debug_info    0x00001424      0x2a7 Lib/ProtocolDecoders.o
 .debug_info    0x000016cb      0x2b0 Lib/ICMP.o
 .debug_info    0x0000197b      0xc0b Lib/TCP.o
 .debug_info    0x00002586      0x2f0 Lib/UDP.o
 .debug_info    0x00002876      0x4c8 Lib/DHCP.o
 .debug_info    0x00002d3e      0x3dd Lib/ARP.o
 .debug_info    0x0000311b      0x38c Lib/IP.o
 .debug_info    0x000034a7      0x501 Lib/Webserver.o
 .debug_info    0x000039a8      0x8e3 Lib/RNDIS.o
 .debug_info    0x0000428b       0xc4 ../../../../LUFA/Drivers/USB/Core/AVR8/Device_AVR8.o
 .debug_info    0x0000434f      0x449 ../../../../LUFA/Drivers/USB/Core/AVR8/Endpoint_AVR8.o
 .debug_info    0x00004798        0x0 ../../../../LUFA/Drivers/USB/Core/AVR8/Host_AVR8.o
 .debug_info    0x00004798        0x0 ../../../../LUFA/Drivers/USB/Core/AVR8/Pipe_AVR8.o
 .debug_info    0x00004798      0x496 ../../../../LUFA/Drivers/USB/Core/AVR8/USBController_AVR8.o
 .debug_info    0x00004c2e      0x56d ../../../../LUFA/Drivers/USB/Core/AVR8/USBInterrupt_AVR8.o
 .debug_info    0x0000519b     0x157b ../../../../LUFA/Drivers/USB/Core/AVR8/EndpointStream_AVR8.o
 .debug_info    0x00006716        0x0 ../../../../LUFA/Drivers/USB/Core/AVR8/PipeStream_AVR8.o
 .debug_info    0x00006716      0x34b ../../../../LUFA/Drivers/USB/Core/ConfigDescriptor.o
 .debug_info    0x00006a61      0x9ed ../../../../LUFA/Drivers/USB/Core/DeviceStandardReq.o
 .debug_info    0x0000744e       0x79 ../../../../LUFA/Drivers/USB/Core/Events.o
 .debug_info    0x000074c7        0x0 ../../../../LUFA/Drivers/USB/Core/HostStandardReq.o
 .debug_info    0x000074c7      0x23b ../../../../LUFA/Drivers/USB/Core/USBTask.o
 .debug_info    0x00007702      0x6ec ../../../../LUFA/Drivers/USB/Class/Common/HIDParser.o
 .debug_info    0x00007dee      0x3d9 ../../../../LUFA/Drivers/Peripheral/AVR8/Serial_AVR8.o
 *(.gnu.linkonce.wi.*)

.debug_abbrev   0x00000000     0x25a1
 *(.debug_abbrev)
 .debug_abbrev  0x00000000      0x2ac RNDISEthernet.o
 .debug_abbrev  0x000002ac      0x154 Descriptors.o
 .debug_abbrev  0x00000400      0x214 Lib/Ethernet.o
 .debug_abbrev  0x00000614      0x10c Lib/ProtocolDecoders.o
 .debug_abbrev  0x00000720      0x147 Lib/ICMP.o
 .debug_abbrev  0x00000867      0x2cf Lib/TCP.o
 .debug_abbrev  0x00000b36      0x1b6 Lib/UDP.o
 .debug_abbrev  0x00000cec      0x1a3 Lib/DHCP.o
 .debug_abbrev  0x00000e8f      0x1ba Lib/ARP.o
 .debug_abbrev  0x00001049      0x1a3 Lib/IP.o
 .debug_abbrev  0x000011ec      0x211 Lib/Webserver.o
 .debug_abbrev  0x000013fd      0x212 Lib/RNDIS.o
 .debug_abbrev  0x0000160f       0x79 ../../../../LUFA/Drivers/USB/Core/AVR8/Device_AVR8.o
 .debug_abbrev  0x00001688      0x1a1 ../../../../LUFA/Drivers/USB/Core/AVR8/Endpoint_AVR8.o
 .debug_abbrev  0x00001829        0x1 ../../../../LUFA/Drivers/USB/Core/AVR8/Host_AVR8.o
 .debug_abbrev  0x0000182a        0x1 ../../../../LUFA/Drivers/USB/Core/AVR8/Pipe_AVR8.o
 .debug_abbrev  0x0000182b      0x15a ../../../../LUFA/Drivers/USB/Core/AVR8/USBController_AVR8.o
 .debug_abbrev  0x00001985      0x176 ../../../../LUFA/Drivers/USB/Core/AVR8/USBInterrupt_AVR8.o
 .debug_abbrev  0x00001afb      0x1aa ../../../../LUFA/Drivers/USB/Core/AVR8/EndpointStream_AVR8.o
 .debug_abbrev  0x00001ca5        0x1 ../../../../LUFA/Drivers/USB/Core/AVR8/PipeStream_AVR8.o
 .debug_abbrev  0x00001ca6      0x15c ../../../../LUFA/Drivers/USB/Core/ConfigDescriptor.o
 .debug_abbrev  0x00001e02      0x22d ../../../../LUFA/Drivers/USB/Core/DeviceStandardReq.o
 .debug_abbrev  0x0000202f       0x4a ../../../../LUFA/Drivers/USB/Core/Events.o
 .debug_abbrev  0x00002079        0x1 ../../../../LUFA/Drivers/USB/Core/HostStandardReq.o
 .debug_abbrev  0x0000207a      0x15d ../../../../LUFA/Drivers/USB/Core/USBTask.o
 .debug_abbrev  0x000021d7      0x1e7 ../../../../LUFA/Drivers/USB/Class/Common/HIDParser.o
 .debug_abbrev  0x000023be      0x1e3 ../../../../LUFA/Drivers/Peripheral/AVR8/Serial_AVR8.o

.debug_line     0x00000000     0x5e80
 *(.debug_line)
 .debug_line    0x00000000      0x639 RNDISEthernet.o
 .debug_line    0x00000639      0x1d5 Descriptors.o
 .debug_line    0x0000080e      0x2ba Lib/Ethernet.o
 .debug_line    0x00000ac8      0x1be Lib/ProtocolDecoders.o
 .debug_line    0x00000c86      0x183 Lib/ICMP.o
 .debug_line    0x00000e09      0x7fc Lib/TCP.o
 .debug_line    0x00001605      0x1ce Lib/UDP.o
 .debug_line    0x000017d3      0x29f Lib/DHCP.o
 .debug_line    0x00001a72      0x28d Lib/ARP.o
 .debug_line    0x00001cff      0x227 Lib/IP.o
 .debug_line    0x00001f26      0x285 Lib/Webserver.o
 .debug_line    0x000021ab      0x323 Lib/RNDIS.o
 .debug_line    0x000024ce      0x133 ../../../../LUFA/Drivers/USB/Core/AVR8/Device_AVR8.o
 .debug_line    0x00002601      0x494 ../../../../LUFA/Drivers/USB/Core/AVR8/Endpoint_AVR8.o
 .debug_line    0x00002a95       0x24 ../../../../LUFA/Drivers/USB/Core/AVR8/Host_AVR8.o
 .debug_line    0x00002ab9       0x24 ../../../../LUFA/Drivers/USB/Core/AVR8/Pipe_AVR8.o
 .debug_line    0x00002add      0x36d ../../../../LUFA/Drivers/USB/Core/AVR8/USBController_AVR8.o
 .debug_line    0x00002e4a      0x54d ../../../../LUFA/Drivers/USB/Core/AVR8/USBInterrupt_AVR8.o
 .debug_line    0x00003397     0x17dd ../../../../LUFA/Drivers/USB/Core/AVR8/EndpointStream_AVR8.o
 .debug_line    0x00004b74       0x24 ../../../../LUFA/Drivers/USB/Core/AVR8/PipeStream_AVR8.o
 .debug_line    0x00004b98      0x24a ../../../../LUFA/Drivers/USB/Core/ConfigDescriptor.o
 .debug_line    0x00004de2      0x5e1 ../../../../LUFA/Drivers/USB/Core/DeviceStandardReq.o
 .debug_line    0x000053c3       0x86 ../../../../LUFA/Drivers/USB/Core/Events.o
 .debug_line    0x00005449       0x24 ../../../../LUFA/Drivers/USB/Core/HostStandardReq.o
 .debug_line    0x0000546d      0x1bd ../../../../LUFA/Drivers/USB/Core/USBTask.o
 .debug_line    0x0000562a      0x5ad ../../../../LUFA/Drivers/USB/Class/Common/HIDParser.o
 .debug_line    0x00005bd7      0x2a9 ../../../../LUFA/Drivers/Peripheral/AVR8/Serial_AVR8.o

.debug_frame    0x00000000      0x6e0
 *(.debug_frame)
 .debug_frame   0x00000000       0x90 RNDISEthernet.o
 .debug_frame   0x00000090       0x20 Descriptors.o
 .debug_frame   0x000000b0       0x30 Lib/Ethernet.o
 .debug_frame   0x000000e0       0x80 Lib/ProtocolDecoders.o
 .debug_frame   0x00000160       0x20 Lib/ICMP.o
 .debug_frame   0x00000180       0xb0 Lib/TCP.o
 .debug_frame   0x00000230       0x20 Lib/UDP.o
 .debug_frame   0x00000250       0x20 Lib/DHCP.o
 .debug_frame   0x00000270       0x20 Lib/ARP.o
 .debug_frame   0x00000290       0x20 Lib/IP.o
 .debug_frame   0x000002b0       0x40 Lib/Webserver.o
 .debug_frame   0x000002f0       0x20 Lib/RNDIS.o
 .debug_frame   0x00000310       0x20 ../../../../LUFA/Drivers/USB/Core/AVR8/Device_AVR8.o
 .debug_frame   0x00000330       0x50 ../../../../LUFA/Drivers/USB/Core/AVR8/Endpoint_AVR8.o
 .debug_frame   0x00000380       0x40 ../../../../LUFA/Drivers/USB/Core/AVR8/USBController_AVR8.o
 .debug_frame   0x000003c0       0x40 ../../../../LUFA/Drivers/USB/Core/AVR8/USBInterrupt_AVR8.o
 .debug_frame   0x00000400      0x170 ../../../../LUFA/Drivers/USB/Core/AVR8/EndpointStream_AVR8.o
 .debug_frame   0x00000570       0x50 ../../../../LUFA/Drivers/USB/Core/ConfigDescriptor.o
 .debug_frame   0x000005c0       0x20 ../../../../LUFA/Drivers/USB/Core/DeviceStandardReq.o
 .debug_frame   0x000005e0       0x20 ../../../../LUFA/Drivers/USB/Core/Events.o
 .debug_frame   0x00000600       0x20 ../../../../LUFA/Drivers/USB/Core/USBTask.o
 .debug_frame   0x00000620       0x50 ../../../../LUFA/Drivers/USB/Class/Common/HIDParser.o
 .debug_frame   0x00000670       0x70 ../../../../LUFA/Drivers/Peripheral/AVR8/Serial_AVR8.o

.debug_str      0x00000000     0x3089
 *(.debug_str)
 .debug_str     0x00000000      0x680 RNDISEthernet.o
                                0x700 (size before relaxing)
 .debug_str     0x00000680      0x545 Descriptors.o
                                0x689 (size before relaxing)
 .debug_str     0x00000bc5      0x12b Lib/Ethernet.o
                                0x2b5 (size before relaxing)
 .debug_str     0x00000cf0       0x9e Lib/ProtocolDecoders.o
                                0x1b3 (size before relaxing)
 .debug_str     0x00000d8e       0x73 Lib/ICMP.o
                                0x1ec (size before relaxing)
 .debug_str     0x00000e01      0x478 Lib/TCP.o
                                0x713 (size before relaxing)
 .debug_str     0x00001279       0x68 Lib/UDP.o
                                0x1f4 (size before relaxing)
 .debug_str     0x000012e1      0x14f Lib/DHCP.o
                                0x389 (size before relaxing)
 .debug_str     0x00001430       0x5c Lib/ARP.o
                                0x218 (size before relaxing)
 .debug_str     0x0000148c       0x2e Lib/IP.o
                                0x27e (size before relaxing)
 .debug_str     0x000014ba       0xa0 Lib/Webserver.o
                                0x416 (size before relaxing)
 .debug_str     0x0000155a      0x3c7 Lib/RNDIS.o
                                0x5d2 (size before relaxing)
 .debug_str     0x00001921       0x7d ../../../../LUFA/Drivers/USB/Core/AVR8/Device_AVR8.o
                                0x13f (size before relaxing)
 .debug_str     0x0000199e      0x27f ../../../../LUFA/Drivers/USB/Core/AVR8/Endpoint_AVR8.o
                                0x4ce (size before relaxing)
 .debug_str     0x00001c1d      0x253 ../../../../LUFA/Drivers/USB/Core/AVR8/USBController_AVR8.o
                                0x453 (size before relaxing)
 .debug_str     0x00001e70       0xef ../../../../LUFA/Drivers/USB/Core/AVR8/USBInterrupt_AVR8.o
                                0x3c5 (size before relaxing)
 .debug_str     0x00001f5f      0x503 ../../../../LUFA/Drivers/USB/Core/AVR8/EndpointStream_AVR8.o
                                0x76d (size before relaxing)
 .debug_str     0x00002462      0x222 ../../../../LUFA/Drivers/USB/Core/ConfigDescriptor.o
                                0x30c (size before relaxing)
 .debug_str     0x00002684      0x3cc ../../../../LUFA/Drivers/USB/Core/DeviceStandardReq.o
                                0x843 (size before relaxing)
 .debug_str     0x00002a50       0x3a ../../../../LUFA/Drivers/USB/Core/Events.o
                                 0xf6 (size before relaxing)
 .debug_str     0x00002a8a       0x70 ../../../../LUFA/Drivers/USB/Core/USBTask.o
                                0x296 (size before relaxing)
 .debug_str     0x00002afa      0x492 ../../../../LUFA/Drivers/USB/Class/Common/HIDParser.o
                                0x5e4 (size before relaxing)
 .debug_str     0x00002f8c       0xfd ../../../../LUFA/Drivers/Peripheral/AVR8/Serial_AVR8.o
                                0x244 (size before relaxing)

.debug_loc      0x00000000     0x33bd
 *(.debug_loc)
 .debug_loc     0x00000000      0x160 Descriptors.o
 .debug_loc     0x00000160      0x154 Lib/Ethernet.o
 .debug_loc     0x000002b4       0x60 Lib/ICMP.o
 .debug_loc     0x00000314      0x5ee Lib/TCP.o
 .debug_loc     0x00000902      0x106 Lib/UDP.o
 .debug_loc     0x00000a08      0x160 Lib/DHCP.o
 .debug_loc     0x00000b68      0x141 Lib/ARP.o
 .debug_loc     0x00000ca9      0x100 Lib/IP.o
 .debug_loc     0x00000da9       0xf0 Lib/Webserver.o
 .debug_loc     0x00000e99      0x19a Lib/RNDIS.o
 .debug_loc     0x00001033       0x7f ../../../../LUFA/Drivers/USB/Core/AVR8/Endpoint_AVR8.o
 .debug_loc     0x000010b2     0x182a ../../../../LUFA/Drivers/USB/Core/AVR8/EndpointStream_AVR8.o
 .debug_loc     0x000028dc      0x2c7 ../../../../LUFA/Drivers/USB/Core/ConfigDescriptor.o
 .debug_loc     0x00002ba3      0x25a ../../../../LUFA/Drivers/USB/Core/DeviceStandardReq.o
 .debug_loc     0x00002dfd      0x4fa ../../../../LUFA/Drivers/USB/Class/Common/HIDParser.o
 .debug_loc     0x000032f7       0xc6 ../../../../LUFA/Drivers/Peripheral/AVR8/Serial_AVR8.o

.debug_macinfo
 *(.debug_macinfo)
OUTPUT(RNDISEthernet.elf elf32-avr)
LOAD linker stubs

.debug_ranges   0x00000000      0x558
 .debug_ranges  0x00000000       0x50 RNDISEthernet.o
 .debug_ranges  0x00000050       0x18 Descriptors.o
 .debug_ranges  0x00000068       0x20 Lib/Ethernet.o
 .debug_ranges  0x00000088       0x48 Lib/ProtocolDecoders.o
 .debug_ranges  0x000000d0       0x18 Lib/ICMP.o
 .debug_ranges  0x000000e8       0x78 Lib/TCP.o
 .debug_ranges  0x00000160       0x18 Lib/UDP.o
 .debug_ranges  0x00000178       0x18 Lib/DHCP.o
 .debug_ranges  0x00000190       0x18 Lib/ARP.o
 .debug_ranges  0x000001a8       0x18 Lib/IP.o
 .debug_ranges  0x000001c0       0x28 Lib/Webserver.o
 .debug_ranges  0x000001e8       0x18 Lib/RNDIS.o
 .debug_ranges  0x00000200       0x18 ../../../../LUFA/Drivers/USB/Core/AVR8/Device_AVR8.o
 .debug_ranges  0x00000218       0x48 ../../../../LUFA/Drivers/USB/Core/AVR8/Endpoint_AVR8.o
 .debug_ranges  0x00000260       0x28 ../../../../LUFA/Drivers/USB/Core/AVR8/USBController_AVR8.o
 .debug_ranges  0x00000288       0x28 ../../../../LUFA/Drivers/USB/Core/AVR8/USBInterrupt_AVR8.o
 .debug_ranges  0x000002b0       0xc0 ../../../../LUFA/Drivers/USB/Core/AVR8/EndpointStream_AVR8.o
 .debug_ranges  0x00000370       0x30 ../../../../LUFA/Drivers/USB/Core/ConfigDescriptor.o
 .debug_ranges  0x000003a0       0x78 ../../../../LUFA/Drivers/USB/Core/DeviceStandardReq.o
 .debug_ranges  0x00000418       0x18 ../../../../LUFA/Drivers/USB/Core/Events.o
 .debug_ranges  0x00000430       0x30 ../../../../LUFA/Drivers/USB/Core/USBTask.o
 .debug_ranges  0x00000460       0xa0 ../../../../LUFA/Drivers/USB/Class/Common/HIDParser.o
 .debug_ranges  0x00000500       0x58 ../../../../LUFA/Drivers/Peripheral/AVR8/Serial_AVR8.o

Cross Reference Table

Symbol                                            File
ARP_ProcessARPPacket                              Lib/ARP.o
                                                  Lib/Ethernet.o
BroadcastIPAddress                                Lib/Ethernet.o
                                                  Lib/IP.o
BroadcastMACAddress                               Lib/Ethernet.o
CALLBACK_HIDParser_FilterHIDReportItem            ../../../../LUFA/Drivers/USB/Class/Common/HIDParser.o
CALLBACK_USB_GetDescriptor                        Descriptors.o
                                                  ../../../../LUFA/Drivers/USB/Core/DeviceStandardReq.o
ClientIPAddress                                   Lib/Ethernet.o
                                                  Lib/DHCP.o
ConfigurationDescriptor                           Descriptors.o
ConnectionStateTable                              Lib/TCP.o
CurrPacketFilter                                  Lib/RNDIS.o
CurrRNDISState                                    Lib/RNDIS.o
                                                  RNDISEthernet.o
DHCP_ProcessDHCPPacket                            Lib/DHCP.o
                                                  Lib/UDP.o
DecodeARPHeader                                   Lib/ProtocolDecoders.o
                                                  Lib/ARP.o
DecodeDHCPHeader                                  Lib/ProtocolDecoders.o
                                                  Lib/DHCP.o
DecodeEthernetFrameHeader                         Lib/ProtocolDecoders.o
                                                  Lib/Ethernet.o
DecodeICMPHeader                                  Lib/ProtocolDecoders.o
                                                  Lib/ICMP.o
DecodeIPHeader                                    Lib/ProtocolDecoders.o
                                                  Lib/IP.o
DecodeTCPHeader                                   Lib/ProtocolDecoders.o
                                                  Lib/TCP.o
DecodeUDPHeader                                   Lib/ProtocolDecoders.o
                                                  Lib/UDP.o
DeviceDescriptor                                  Descriptors.o
EVENT_USB_Device_ConfigurationChanged             RNDISEthernet.o
                                                  ../../../../LUFA/Drivers/USB/Core/DeviceStandardReq.o
EVENT_USB_Device_Connect                          RNDISEthernet.o
                                                  ../../../../LUFA/Drivers/USB/Core/AVR8/USBInterrupt_AVR8.o
EVENT_USB_Device_ControlRequest                   RNDISEthernet.o
                                                  ../../../../LUFA/Drivers/USB/Core/DeviceStandardReq.o
EVENT_USB_Device_Disconnect                       RNDISEthernet.o
                                                  ../../../../LUFA/Drivers/USB/Core/AVR8/USBInterrupt_AVR8.o
EVENT_USB_Device_Reset                            ../../../../LUFA/Drivers/USB/Core/Events.o
                                                  ../../../../LUFA/Drivers/USB/Core/AVR8/USBInterrupt_AVR8.o
EVENT_USB_Device_StartOfFrame                     ../../../../LUFA/Drivers/USB/Core/Events.o
                                                  ../../../../LUFA/Drivers/USB/Core/AVR8/USBInterrupt_AVR8.o
EVENT_USB_Device_Suspend                          ../../../../LUFA/Drivers/USB/Core/Events.o
                                                  ../../../../LUFA/Drivers/USB/Core/AVR8/USBInterrupt_AVR8.o
EVENT_USB_Device_WakeUp                           ../../../../LUFA/Drivers/USB/Core/Events.o
                                                  ../../../../LUFA/Drivers/USB/Core/AVR8/USBInterrupt_AVR8.o
Endpoint_ClearEndpoints                           ../../../../LUFA/Drivers/USB/Core/AVR8/Endpoint_AVR8.o
Endpoint_ClearStatusStage                         ../../../../LUFA/Drivers/USB/Core/AVR8/Endpoint_AVR8.o
                                                  ../../../../LUFA/Drivers/USB/Core/DeviceStandardReq.o
Endpoint_ConfigureEndpoint_Prv                    ../../../../LUFA/Drivers/USB/Core/AVR8/Endpoint_AVR8.o
                                                  ../../../../LUFA/Drivers/USB/Core/AVR8/USBInterrupt_AVR8.o
                                                  ../../../../LUFA/Drivers/USB/Core/AVR8/USBController_AVR8.o
                                                  RNDISEthernet.o
Endpoint_Discard_Stream                           ../../../../LUFA/Drivers/USB/Core/AVR8/EndpointStream_AVR8.o
Endpoint_Null_Stream                              ../../../../LUFA/Drivers/USB/Core/AVR8/EndpointStream_AVR8.o
Endpoint_Read_Control_EStream_BE                  ../../../../LUFA/Drivers/USB/Core/AVR8/EndpointStream_AVR8.o
Endpoint_Read_Control_EStream_LE                  ../../../../LUFA/Drivers/USB/Core/AVR8/EndpointStream_AVR8.o
Endpoint_Read_Control_Stream_BE                   ../../../../LUFA/Drivers/USB/Core/AVR8/EndpointStream_AVR8.o
Endpoint_Read_Control_Stream_LE                   ../../../../LUFA/Drivers/USB/Core/AVR8/EndpointStream_AVR8.o
                                                  RNDISEthernet.o
Endpoint_Read_EStream_BE                          ../../../../LUFA/Drivers/USB/Core/AVR8/EndpointStream_AVR8.o
Endpoint_Read_EStream_LE                          ../../../../LUFA/Drivers/USB/Core/AVR8/EndpointStream_AVR8.o
Endpoint_Read_Stream_BE                           ../../../../LUFA/Drivers/USB/Core/AVR8/EndpointStream_AVR8.o
Endpoint_Read_Stream_LE                           ../../../../LUFA/Drivers/USB/Core/AVR8/EndpointStream_AVR8.o
                                                  RNDISEthernet.o
Endpoint_WaitUntilReady                           ../../../../LUFA/Drivers/USB/Core/AVR8/Endpoint_AVR8.o
                                                  ../../../../LUFA/Drivers/USB/Core/AVR8/EndpointStream_AVR8.o
Endpoint_Write_Control_EStream_BE                 ../../../../LUFA/Drivers/USB/Core/AVR8/EndpointStream_AVR8.o
Endpoint_Write_Control_EStream_LE                 ../../../../LUFA/Drivers/USB/Core/AVR8/EndpointStream_AVR8.o
Endpoint_Write_Control_PStream_BE                 ../../../../LUFA/Drivers/USB/Core/AVR8/EndpointStream_AVR8.o
Endpoint_Write_Control_PStream_LE                 ../../../../LUFA/Drivers/USB/Core/AVR8/EndpointStream_AVR8.o
                                                  ../../../../LUFA/Drivers/USB/Core/DeviceStandardReq.o
Endpoint_Write_Control_Stream_BE                  ../../../../LUFA/Drivers/USB/Core/AVR8/EndpointStream_AVR8.o
Endpoint_Write_Control_Stream_LE                  ../../../../LUFA/Drivers/USB/Core/AVR8/EndpointStream_AVR8.o
                                                  ../../../../LUFA/Drivers/USB/Core/DeviceStandardReq.o
                                                  RNDISEthernet.o
Endpoint_Write_EStream_BE                         ../../../../LUFA/Drivers/USB/Core/AVR8/EndpointStream_AVR8.o
Endpoint_Write_EStream_LE                         ../../../../LUFA/Drivers/USB/Core/AVR8/EndpointStream_AVR8.o
Endpoint_Write_PStream_BE                         ../../../../LUFA/Drivers/USB/Core/AVR8/EndpointStream_AVR8.o
Endpoint_Write_PStream_LE                         ../../../../LUFA/Drivers/USB/Core/AVR8/EndpointStream_AVR8.o
Endpoint_Write_Stream_BE                          ../../../../LUFA/Drivers/USB/Core/AVR8/EndpointStream_AVR8.o
Endpoint_Write_Stream_LE                          ../../../../LUFA/Drivers/USB/Core/AVR8/EndpointStream_AVR8.o
                                                  RNDISEthernet.o
Ethernet_Checksum16                               Lib/Ethernet.o
                                                  Lib/IP.o
                                                  Lib/TCP.o
                                                  Lib/ICMP.o
Ethernet_ProcessPacket                            Lib/Ethernet.o
                                                  RNDISEthernet.o
Ethernet_Task                                     RNDISEthernet.o
FrameIN                                           Lib/ICMP.o
                                                  Lib/Ethernet.o
                                                  RNDISEthernet.o
FrameOUT                                          Lib/TCP.o
                                                  Lib/Ethernet.o
                                                  RNDISEthernet.o
HTTP200Header                                     Lib/Webserver.o
HTTP404Header                                     Lib/Webserver.o
HTTPPage                                          Lib/Webserver.o
ICMP_ProcessICMPPacket                            Lib/ICMP.o
                                                  Lib/IP.o
IP_ProcessIPPacket                                Lib/IP.o
                                                  Lib/Ethernet.o
LanguageString                                    Descriptors.o
ManufacturerString                                Descriptors.o
MessageHeader                                     Lib/RNDIS.o
                                                  RNDISEthernet.o
PortStateTable                                    Lib/TCP.o
ProcessRNDISControlMessage                        Lib/RNDIS.o
                                                  RNDISEthernet.o
ProductString                                     Descriptors.o
RNDISMessageBuffer                                Lib/RNDIS.o
                                                  RNDISEthernet.o
RNDIS_Task                                        RNDISEthernet.o
ResponseReady                                     Lib/RNDIS.o
                                                  RNDISEthernet.o
Serial_SendData                                   ../../../../LUFA/Drivers/Peripheral/AVR8/Serial_AVR8.o
Serial_SendString                                 ../../../../LUFA/Drivers/Peripheral/AVR8/Serial_AVR8.o
Serial_SendString_P                               ../../../../LUFA/Drivers/Peripheral/AVR8/Serial_AVR8.o
Serial_getchar                                    ../../../../LUFA/Drivers/Peripheral/AVR8/Serial_AVR8.o
                                                  RNDISEthernet.o
Serial_getchar_Blocking                           ../../../../LUFA/Drivers/Peripheral/AVR8/Serial_AVR8.o
Serial_putchar                                    ../../../../LUFA/Drivers/Peripheral/AVR8/Serial_AVR8.o
                                                  RNDISEthernet.o
ServerIPAddress                                   Lib/Ethernet.o
                                                  Lib/IP.o
                                                  Lib/ARP.o
                                                  Lib/DHCP.o
                                                  Lib/TCP.o
ServerMACAddress                                  Lib/Ethernet.o
                                                  Lib/ARP.o
                                                  Lib/TCP.o
SetupHardware                                     RNDISEthernet.o
TCP_GetConnectionInfo                             Lib/TCP.o
TCP_GetConnectionState                            Lib/TCP.o
TCP_GetPortState                                  Lib/TCP.o
TCP_Init                                          Lib/TCP.o
                                                  RNDISEthernet.o
TCP_ProcessTCPPacket                              Lib/TCP.o
                                                  Lib/IP.o
TCP_SetConnectionState                            Lib/TCP.o
TCP_SetPortState                                  Lib/TCP.o
                                                  Lib/Webserver.o
TCP_Task                                          Lib/TCP.o
                                                  RNDISEthernet.o
UDP_ProcessUDPPacket                              Lib/UDP.o
                                                  Lib/IP.o
USARTSerialStream                                 ../../../../LUFA/Drivers/Peripheral/AVR8/Serial_AVR8.o
                                                  RNDISEthernet.o
USB_ControlRequest                                ../../../../LUFA/Drivers/USB/Core/USBTask.o
                                                  ../../../../LUFA/Drivers/USB/Core/DeviceStandardReq.o
                                                  ../../../../LUFA/Drivers/USB/Core/AVR8/EndpointStream_AVR8.o
                                                  ../../../../LUFA/Drivers/USB/Core/AVR8/Endpoint_AVR8.o
                                                  RNDISEthernet.o
USB_DeviceState                                   ../../../../LUFA/Drivers/USB/Core/USBTask.o
                                                  ../../../../LUFA/Drivers/USB/Core/DeviceStandardReq.o
                                                  ../../../../LUFA/Drivers/USB/Core/AVR8/EndpointStream_AVR8.o
                                                  ../../../../LUFA/Drivers/USB/Core/AVR8/USBInterrupt_AVR8.o
                                                  ../../../../LUFA/Drivers/USB/Core/AVR8/USBController_AVR8.o
                                                  ../../../../LUFA/Drivers/USB/Core/AVR8/Endpoint_AVR8.o
                                                  RNDISEthernet.o
USB_Device_ConfigurationNumber                    ../../../../LUFA/Drivers/USB/Core/DeviceStandardReq.o
                                                  ../../../../LUFA/Drivers/USB/Core/AVR8/USBInterrupt_AVR8.o
                                                  ../../../../LUFA/Drivers/USB/Core/AVR8/USBController_AVR8.o
USB_Device_CurrentlySelfPowered                   ../../../../LUFA/Drivers/USB/Core/DeviceStandardReq.o
                                                  ../../../../LUFA/Drivers/USB/Core/AVR8/USBController_AVR8.o
USB_Device_ProcessControlRequest                  ../../../../LUFA/Drivers/USB/Core/DeviceStandardReq.o
                                                  ../../../../LUFA/Drivers/USB/Core/USBTask.o
USB_Device_RemoteWakeupEnabled                    ../../../../LUFA/Drivers/USB/Core/DeviceStandardReq.o
                                                  ../../../../LUFA/Drivers/USB/Core/AVR8/USBController_AVR8.o
USB_Device_SendRemoteWakeup                       ../../../../LUFA/Drivers/USB/Core/AVR8/Device_AVR8.o
USB_Disable                                       ../../../../LUFA/Drivers/USB/Core/AVR8/USBController_AVR8.o
USB_Event_Stub                                    ../../../../LUFA/Drivers/USB/Core/Events.o
USB_GetHIDReportItemInfo                          ../../../../LUFA/Drivers/USB/Class/Common/HIDParser.o
USB_GetHIDReportSize                              ../../../../LUFA/Drivers/USB/Class/Common/HIDParser.o
USB_GetNextDescriptorComp                         ../../../../LUFA/Drivers/USB/Core/ConfigDescriptor.o
USB_GetNextDescriptorOfType                       ../../../../LUFA/Drivers/USB/Core/ConfigDescriptor.o
USB_GetNextDescriptorOfTypeAfter                  ../../../../LUFA/Drivers/USB/Core/ConfigDescriptor.o
USB_GetNextDescriptorOfTypeBefore                 ../../../../LUFA/Drivers/USB/Core/ConfigDescriptor.o
USB_INT_ClearAllInterrupts                        ../../../../LUFA/Drivers/USB/Core/AVR8/USBInterrupt_AVR8.o
                                                  ../../../../LUFA/Drivers/USB/Core/AVR8/USBController_AVR8.o
USB_INT_DisableAllInterrupts                      ../../../../LUFA/Drivers/USB/Core/AVR8/USBInterrupt_AVR8.o
                                                  ../../../../LUFA/Drivers/USB/Core/AVR8/USBController_AVR8.o
USB_Init                                          ../../../../LUFA/Drivers/USB/Core/AVR8/USBController_AVR8.o
                                                  RNDISEthernet.o
USB_IsInitialized                                 ../../../../LUFA/Drivers/USB/Core/USBTask.o
                                                  ../../../../LUFA/Drivers/USB/Core/AVR8/USBController_AVR8.o
USB_ProcessHIDReport                              ../../../../LUFA/Drivers/USB/Class/Common/HIDParser.o
USB_ResetInterface                                ../../../../LUFA/Drivers/USB/Core/AVR8/USBController_AVR8.o
USB_SetHIDReportItemInfo                          ../../../../LUFA/Drivers/USB/Class/Common/HIDParser.o
USB_USBTask                                       ../../../../LUFA/Drivers/USB/Core/USBTask.o
                                                  ../../../../LUFA/Drivers/USB/Core/AVR8/EndpointStream_AVR8.o
                                                  RNDISEthernet.o
Webserver_ApplicationCallback                     Lib/Webserver.o
Webserver_Init                                    Lib/Webserver.o
                                                  RNDISEthernet.o
__bad_interrupt                                   c:/winavr-20100110/bin/../lib/gcc/avr/4.3.3/../../../../avr/lib/avr51/crtusb1287.o
__bss_end                                         c:/winavr-20100110/bin/../lib/gcc/avr/4.3.3/avr51\libgcc.a(_clear_bss.o)
__bss_start                                       c:/winavr-20100110/bin/../lib/gcc/avr/4.3.3/avr51\libgcc.a(_clear_bss.o)
__data_end                                        c:/winavr-20100110/bin/../lib/gcc/avr/4.3.3/../../../../avr/lib/avr51/crtusb1287.o
__data_load_start                                 c:/winavr-20100110/bin/../lib/gcc/avr/4.3.3/../../../../avr/lib/avr51/crtusb1287.o
__data_start                                      c:/winavr-20100110/bin/../lib/gcc/avr/4.3.3/../../../../avr/lib/avr51/crtusb1287.o
__do_clear_bss                                    c:/winavr-20100110/bin/../lib/gcc/avr/4.3.3/avr51\libgcc.a(_clear_bss.o)
                                                  c:/winavr-20100110/bin/../lib/gcc/avr/4.3.3/../../../../avr/lib/avr51\libc.a(iob.o)
                                                  ../../../../LUFA/Drivers/Peripheral/AVR8/Serial_AVR8.o
                                                  ../../../../LUFA/Drivers/USB/Core/USBTask.o
                                                  ../../../../LUFA/Drivers/USB/Core/DeviceStandardReq.o
                                                  Lib/RNDIS.o
                                                  Lib/Webserver.o
                                                  Lib/TCP.o
                                                  Lib/Ethernet.o
__do_copy_data                                    c:/winavr-20100110/bin/../lib/gcc/avr/4.3.3/../../../../avr/lib/avr51/crtusb1287.o
                                                  Lib/RNDIS.o
                                                  Lib/Webserver.o
                                                  Lib/TCP.o
                                                  Lib/Ethernet.o
                                                  RNDISEthernet.o
__eerd_byte_usb1287                               c:/winavr-20100110/bin/../lib/gcc/avr/4.3.3/../../../../avr/lib/avr51\libc.a(eerd_byte_at90usb1287.o)
                                                  ../../../../LUFA/Drivers/USB/Core/AVR8/EndpointStream_AVR8.o
__eeupd_byte_usb1287                              c:/winavr-20100110/bin/../lib/gcc/avr/4.3.3/../../../../avr/lib/avr51\libc.a(eeupd_byte_at90usb1287.o)
                                                  ../../../../LUFA/Drivers/USB/Core/AVR8/EndpointStream_AVR8.o
__eeupd_r18_usb1287                               c:/winavr-20100110/bin/../lib/gcc/avr/4.3.3/../../../../avr/lib/avr51\libc.a(eeupd_byte_at90usb1287.o)
__heap_end                                        c:/winavr-20100110/bin/../lib/gcc/avr/4.3.3/../../../../avr/lib/avr51/crtusb1287.o
__init                                            c:/winavr-20100110/bin/../lib/gcc/avr/4.3.3/../../../../avr/lib/avr51/crtusb1287.o
__iob                                             c:/winavr-20100110/bin/../lib/gcc/avr/4.3.3/../../../../avr/lib/avr51\libc.a(iob.o)
                                                  RNDISEthernet.o
__stack                                           c:/winavr-20100110/bin/../lib/gcc/avr/4.3.3/../../../../avr/lib/avr51/crtusb1287.o
__vector_1                                        c:/winavr-20100110/bin/../lib/gcc/avr/4.3.3/../../../../avr/lib/avr51/crtusb1287.o
__vector_10                                       ../../../../LUFA/Drivers/USB/Core/AVR8/USBInterrupt_AVR8.o
                                                  c:/winavr-20100110/bin/../lib/gcc/avr/4.3.3/../../../../avr/lib/avr51/crtusb1287.o
__vector_11                                       c:/winavr-20100110/bin/../lib/gcc/avr/4.3.3/../../../../avr/lib/avr51/crtusb1287.o
__vector_12                                       c:/winavr-20100110/bin/../lib/gcc/avr/4.3.3/../../../../avr/lib/avr51/crtusb1287.o
__vector_13                                       c:/winavr-20100110/bin/../lib/gcc/avr/4.3.3/../../../../avr/lib/avr51/crtusb1287.o
__vector_14                                       c:/winavr-20100110/bin/../lib/gcc/avr/4.3.3/../../../../avr/lib/avr51/crtusb1287.o
__vector_15                                       c:/winavr-20100110/bin/../lib/gcc/avr/4.3.3/../../../../avr/lib/avr51/crtusb1287.o
__vector_16                                       c:/winavr-20100110/bin/../lib/gcc/avr/4.3.3/../../../../avr/lib/avr51/crtusb1287.o
__vector_17                                       c:/winavr-20100110/bin/../lib/gcc/avr/4.3.3/../../../../avr/lib/avr51/crtusb1287.o
__vector_18                                       c:/winavr-20100110/bin/../lib/gcc/avr/4.3.3/../../../../avr/lib/avr51/crtusb1287.o
__vector_19                                       c:/winavr-20100110/bin/../lib/gcc/avr/4.3.3/../../../../avr/lib/avr51/crtusb1287.o
__vector_2                                        c:/winavr-20100110/bin/../lib/gcc/avr/4.3.3/../../../../avr/lib/avr51/crtusb1287.o
__vector_20                                       c:/winavr-20100110/bin/../lib/gcc/avr/4.3.3/../../../../avr/lib/avr51/crtusb1287.o
__vector_21                                       c:/winavr-20100110/bin/../lib/gcc/avr/4.3.3/../../../../avr/lib/avr51/crtusb1287.o
__vector_22                                       c:/winavr-20100110/bin/../lib/gcc/avr/4.3.3/../../../../avr/lib/avr51/crtusb1287.o
__vector_23                                       c:/winavr-20100110/bin/../lib/gcc/avr/4.3.3/../../../../avr/lib/avr51/crtusb1287.o
__vector_24                                       c:/winavr-20100110/bin/../lib/gcc/avr/4.3.3/../../../../avr/lib/avr51/crtusb1287.o
__vector_25                                       c:/winavr-20100110/bin/../lib/gcc/avr/4.3.3/../../../../avr/lib/avr51/crtusb1287.o
__vector_26                                       c:/winavr-20100110/bin/../lib/gcc/avr/4.3.3/../../../../avr/lib/avr51/crtusb1287.o
__vector_27                                       c:/winavr-20100110/bin/../lib/gcc/avr/4.3.3/../../../../avr/lib/avr51/crtusb1287.o
__vector_28                                       c:/winavr-20100110/bin/../lib/gcc/avr/4.3.3/../../../../avr/lib/avr51/crtusb1287.o
__vector_29                                       c:/winavr-20100110/bin/../lib/gcc/avr/4.3.3/../../../../avr/lib/avr51/crtusb1287.o
__vector_3                                        c:/winavr-20100110/bin/../lib/gcc/avr/4.3.3/../../../../avr/lib/avr51/crtusb1287.o
__vector_30                                       c:/winavr-20100110/bin/../lib/gcc/avr/4.3.3/../../../../avr/lib/avr51/crtusb1287.o
__vector_31                                       c:/winavr-20100110/bin/../lib/gcc/avr/4.3.3/../../../../avr/lib/avr51/crtusb1287.o
__vector_32                                       c:/winavr-20100110/bin/../lib/gcc/avr/4.3.3/../../../../avr/lib/avr51/crtusb1287.o
__vector_33                                       c:/winavr-20100110/bin/../lib/gcc/avr/4.3.3/../../../../avr/lib/avr51/crtusb1287.o
__vector_34                                       c:/winavr-20100110/bin/../lib/gcc/avr/4.3.3/../../../../avr/lib/avr51/crtusb1287.o
__vector_35                                       c:/winavr-20100110/bin/../lib/gcc/avr/4.3.3/../../../../avr/lib/avr51/crtusb1287.o
__vector_36                                       c:/winavr-20100110/bin/../lib/gcc/avr/4.3.3/../../../../avr/lib/avr51/crtusb1287.o
__vector_37                                       c:/winavr-20100110/bin/../lib/gcc/avr/4.3.3/../../../../avr/lib/avr51/crtusb1287.o
__vector_4                                        c:/winavr-20100110/bin/../lib/gcc/avr/4.3.3/../../../../avr/lib/avr51/crtusb1287.o
__vector_5                                        c:/winavr-20100110/bin/../lib/gcc/avr/4.3.3/../../../../avr/lib/avr51/crtusb1287.o
__vector_6                                        c:/winavr-20100110/bin/../lib/gcc/avr/4.3.3/../../../../avr/lib/avr51/crtusb1287.o
__vector_7                                        c:/winavr-20100110/bin/../lib/gcc/avr/4.3.3/../../../../avr/lib/avr51/crtusb1287.o
__vector_8                                        c:/winavr-20100110/bin/../lib/gcc/avr/4.3.3/../../../../avr/lib/avr51/crtusb1287.o
__vector_9                                        c:/winavr-20100110/bin/../lib/gcc/avr/4.3.3/../../../../avr/lib/avr51/crtusb1287.o
__vector_default                                  c:/winavr-20100110/bin/../lib/gcc/avr/4.3.3/../../../../avr/lib/avr51/crtusb1287.o
__vectors                                         c:/winavr-20100110/bin/../lib/gcc/avr/4.3.3/../../../../avr/lib/avr51/crtusb1287.o
_exit                                             c:/winavr-20100110/bin/../lib/gcc/avr/4.3.3/avr51\libgcc.a(_exit.o)
exit                                              c:/winavr-20100110/bin/../lib/gcc/avr/4.3.3/avr51\libgcc.a(_exit.o)
                                                  c:/winavr-20100110/bin/../lib/gcc/avr/4.3.3/../../../../avr/lib/avr51/crtusb1287.o
main                                              RNDISEthernet.o
                                                  c:/winavr-20100110/bin/../lib/gcc/avr/4.3.3/../../../../avr/lib/avr51/crtusb1287.o
memcmp                                            c:/winavr-20100110/bin/../lib/gcc/avr/4.3.3/../../../../avr/lib/avr51\libc.a(memcmp.o)
                                                  Lib/IP.o
                                                  Lib/ARP.o
                                                  Lib/TCP.o
                                                  Lib/Ethernet.o
memcpy                                            c:/winavr-20100110/bin/../lib/gcc/avr/4.3.3/../../../../avr/lib/avr51\libc.a(memcpy.o)
                                                  c:/winavr-20100110/bin/../lib/gcc/avr/4.3.3/../../../../avr/lib/avr51\libc.a(memmove.o)
                                                  Lib/TCP.o
memcpy_P                                          c:/winavr-20100110/bin/../lib/gcc/avr/4.3.3/../../../../avr/lib/avr51\libc.a(memcpy_P.o)
                                                  Lib/RNDIS.o
memmove                                           c:/winavr-20100110/bin/../lib/gcc/avr/4.3.3/../../../../avr/lib/avr51\libc.a(memmove.o)
                                                  Lib/DHCP.o
                                                  Lib/ICMP.o
strcpy_P                                          c:/winavr-20100110/bin/../lib/gcc/avr/4.3.3/../../../../avr/lib/avr51\libc.a(strcpy_P.o)
                                                  Lib/Webserver.o
strlen_P                                          c:/winavr-20100110/bin/../lib/gcc/avr/4.3.3/../../../../avr/lib/avr51\libc.a(strlen_P.o)
                                                  Lib/Webserver.o
strncmp                                           c:/winavr-20100110/bin/../lib/gcc/avr/4.3.3/../../../../avr/lib/avr51\libc.a(strncmp.o)
                                                  Lib/Webserver.o
strncpy_P                                         c:/winavr-20100110/bin/../lib/gcc/avr/4.3.3/../../../../avr/lib/avr51\libc.a(strncpy_P.o)
                                                  Lib/Webserver.o
