
MouseHostWithParser.elf:     file format elf32-avr

Sections:
Idx Name          Size      VMA       LMA       File off  Algn
  0 .data         00000024  00800100  00002604  00002698  2**0
                  CONTENTS, ALLOC, LOAD, DATA
  1 .text         00002604  00000000  00000000  00000094  2**1
                  CONTENTS, ALLOC, LOAD, READONLY, CODE
  2 .bss          000003fb  00800124  00800124  000026bc  2**0
                  ALLOC
  3 .debug_aranges 000006d0  00000000  00000000  000026bc  2**0
                  CONTENTS, READONLY, DEBUGGING
  4 .debug_pubnames 00000fb7  00000000  00000000  00002d8c  2**0
                  CONTENTS, READONLY, DEBUGGING
  5 .debug_info   0000ba23  00000000  00000000  00003d43  2**0
                  CONTENTS, READONLY, DEBUGGING
  6 .debug_abbrev 0000289a  00000000  00000000  0000f766  2**0
                  CONTENTS, READONLY, DEBUGGING
  7 .debug_line   00007e27  00000000  00000000  00012000  2**0
                  CONTENTS, READONLY, DEBUGGING
  8 .debug_frame  00000b20  00000000  00000000  00019e28  2**2
                  CONTENTS, READONLY, DEBUGGING
  9 .debug_str    000045e0  00000000  00000000  0001a948  2**0
                  CONTENTS, READONLY, DEBUGGING
 10 .debug_loc    000057b9  00000000  00000000  0001ef28  2**0
                  CONTENTS, READONLY, DEBUGGING
 11 .debug_ranges 000007b8  00000000  00000000  000246e1  2**0
                  CONTENTS, READONLY, DEBUGGING

Disassembly of section .text:

00000000 <__vectors>:
			BytesInTransfer++;
		}
	}

	return PIPE_RWSTREAM_NoError;
}
       0:	19 c1       	rjmp	.+562    	; 0x234 <__ctors_end>
{
	USB_GetNextDescriptorOfType(BytesRem, CurrConfigLoc, AfterType);

	if (*BytesRem)
	  USB_GetNextDescriptorOfType(BytesRem, CurrConfigLoc, Type);
}
       2:	00 00       	nop
	return USB_Host_SendControlRequest(NULL);
}

uint8_t USB_Host_SetInterfaceAltSetting(const uint8_t InterfaceIndex,
                                        const uint8_t AltSetting)
{
       4:	35 c1       	rjmp	.+618    	; 0x270 <__bad_interrupt>
	return true;
}

void USB_SetHIDReportItemInfo(uint8_t* ReportData,
                              HID_ReportItem_t* const ReportItem)
{
       6:	00 00       	nop
	return HOST_SENDCONTROL_Successful;
}

uint8_t HID_Host_SetIdlePeriod(USB_ClassInfo_HID_Host_t* const HIDInterfaceInfo,
                               const uint16_t MS)
{
       8:	33 c1       	rjmp	.+614    	; 0x270 <__bad_interrupt>

	return Serial_ReceiveByte();
}

int Serial_getchar_Blocking(FILE *Stream)
{
       a:	00 00       	nop
       c:	31 c1       	rjmp	.+610    	; 0x270 <__bad_interrupt>
       e:	00 00       	nop
      10:	2f c1       	rjmp	.+606    	; 0x270 <__bad_interrupt>
      12:	00 00       	nop
      14:	2d c1       	rjmp	.+602    	; 0x270 <__bad_interrupt>
      16:	00 00       	nop
      18:	2b c1       	rjmp	.+598    	; 0x270 <__bad_interrupt>
      1a:	00 00       	nop
      1c:	29 c1       	rjmp	.+594    	; 0x270 <__bad_interrupt>
      1e:	00 00       	nop
      20:	27 c1       	rjmp	.+590    	; 0x270 <__bad_interrupt>
      22:	00 00       	nop
      24:	25 c1       	rjmp	.+586    	; 0x270 <__bad_interrupt>
      26:	00 00       	nop
      28:	3b c6       	rjmp	.+3190   	; 0xca0 <__vector_10>
      2a:	00 00       	nop
      2c:	21 c1       	rjmp	.+578    	; 0x270 <__bad_interrupt>
      2e:	00 00       	nop
      30:	1f c1       	rjmp	.+574    	; 0x270 <__bad_interrupt>
      32:	00 00       	nop
      34:	1d c1       	rjmp	.+570    	; 0x270 <__bad_interrupt>
      36:	00 00       	nop
      38:	1b c1       	rjmp	.+566    	; 0x270 <__bad_interrupt>
      3a:	00 00       	nop
      3c:	19 c1       	rjmp	.+562    	; 0x270 <__bad_interrupt>
      3e:	00 00       	nop
      40:	17 c1       	rjmp	.+558    	; 0x270 <__bad_interrupt>
      42:	00 00       	nop
      44:	15 c1       	rjmp	.+554    	; 0x270 <__bad_interrupt>
      46:	00 00       	nop
      48:	13 c1       	rjmp	.+550    	; 0x270 <__bad_interrupt>
      4a:	00 00       	nop
      4c:	11 c1       	rjmp	.+546    	; 0x270 <__bad_interrupt>
      4e:	00 00       	nop
      50:	0f c1       	rjmp	.+542    	; 0x270 <__bad_interrupt>
      52:	00 00       	nop
      54:	0d c1       	rjmp	.+538    	; 0x270 <__bad_interrupt>
      56:	00 00       	nop
      58:	0b c1       	rjmp	.+534    	; 0x270 <__bad_interrupt>
      5a:	00 00       	nop
      5c:	09 c1       	rjmp	.+530    	; 0x270 <__bad_interrupt>
      5e:	00 00       	nop
      60:	07 c1       	rjmp	.+526    	; 0x270 <__bad_interrupt>
      62:	00 00       	nop
      64:	05 c1       	rjmp	.+522    	; 0x270 <__bad_interrupt>
      66:	00 00       	nop
      68:	03 c1       	rjmp	.+518    	; 0x270 <__bad_interrupt>
      6a:	00 00       	nop
      6c:	01 c1       	rjmp	.+514    	; 0x270 <__bad_interrupt>
      6e:	00 00       	nop
      70:	ff c0       	rjmp	.+510    	; 0x270 <__bad_interrupt>
      72:	00 00       	nop
      74:	fd c0       	rjmp	.+506    	; 0x270 <__bad_interrupt>
      76:	00 00       	nop
      78:	fb c0       	rjmp	.+502    	; 0x270 <__bad_interrupt>
      7a:	00 00       	nop
      7c:	f9 c0       	rjmp	.+498    	; 0x270 <__bad_interrupt>
      7e:	00 00       	nop
      80:	f7 c0       	rjmp	.+494    	; 0x270 <__bad_interrupt>
      82:	00 00       	nop
      84:	f5 c0       	rjmp	.+490    	; 0x270 <__bad_interrupt>
      86:	00 00       	nop
      88:	f3 c0       	rjmp	.+486    	; 0x270 <__bad_interrupt>
      8a:	00 00       	nop
      8c:	f1 c0       	rjmp	.+482    	; 0x270 <__bad_interrupt>
      8e:	00 00       	nop
      90:	ef c0       	rjmp	.+478    	; 0x270 <__bad_interrupt>
      92:	00 00       	nop
      94:	ed c0       	rjmp	.+474    	; 0x270 <__bad_interrupt>
      96:	00 00       	nop

00000098 <__c.4609>:
      98:	1b 5b 33 31 6d 44 65 76 20 45 6e 75 6d 20 45 72     .[31mDev Enum Er
      a8:	72 6f 72 0d 0a 20 2d 2d 20 45 72 72 6f 72 20 43     ror.. -- Error C
      b8:	6f 64 65 20 25 64 0d 0a 20 2d 2d 20 53 75 62 20     ode %d.. -- Sub 
      c8:	45 72 72 6f 72 20 43 6f 64 65 20 25 64 0d 0a 20     Error Code %d.. 
      d8:	2d 2d 20 49 6e 20 53 74 61 74 65 20 25 64 0d 0a     -- In State %d..
      e8:	1b 5b 33 37 6d 00                                   .[37m.

000000ee <__c.4601>:
      ee:	1b 5b 33 31 6d 48 6f 73 74 20 4d 6f 64 65 20 45     .[31mHost Mode E
      fe:	72 72 6f 72 0d 0a 20 2d 2d 20 45 72 72 6f 72 20     rror.. -- Error 
     10e:	43 6f 64 65 20 25 64 0d 0a 1b 5b 33 37 6d 00        Code %d...[37m.

0000011d <__c.4591>:
     11d:	4d 6f 75 73 65 20 45 6e 75 6d 65 72 61 74 65 64     Mouse Enumerated
     12d:	2e 0d 0a 00                                         ....

00000131 <__c.4589>:
     131:	45 72 72 6f 72 20 53 65 74 74 69 6e 67 20 52 65     Error Setting Re
     141:	70 6f 72 74 20 50 72 6f 74 6f 63 6f 6c 20 4d 6f     port Protocol Mo
     151:	64 65 20 6f 72 20 4e 6f 74 20 61 20 56 61 6c 69     de or Not a Vali
     161:	64 20 4d 6f 75 73 65 2e 0d 0a 00                    d Mouse....

0000016c <__c.4587>:
     16c:	45 72 72 6f 72 20 53 65 74 74 69 6e 67 20 44 65     Error Setting De
     17c:	76 69 63 65 20 43 6f 6e 66 69 67 75 72 61 74 69     vice Configurati
     18c:	6f 6e 2e 0d 0a 00                                   on....

00000192 <__c.4585>:
     192:	41 74 74 61 63 68 65 64 20 44 65 76 69 63 65 20     Attached Device 
     1a2:	4e 6f 74 20 61 20 56 61 6c 69 64 20 4d 6f 75 73     Not a Valid Mous
     1b2:	65 2e 0d 0a 00                                      e....

000001b7 <__c.4583>:
     1b7:	45 72 72 6f 72 20 52 65 74 72 69 65 76 69 6e 67     Error Retrieving
     1c7:	20 43 6f 6e 66 69 67 75 72 61 74 69 6f 6e 20 44      Configuration D
     1d7:	65 73 63 72 69 70 74 6f 72 2e 0d 0a 00              escriptor....

000001e4 <__c.4576>:
     1e4:	0d 0a 44 65 76 69 63 65 20 55 6e 61 74 74 61 63     ..Device Unattac
     1f4:	68 65 64 2e 0d 0a 00                                hed....

000001fb <__c.4571>:
     1fb:	44 65 76 69 63 65 20 41 74 74 61 63 68 65 64 2e     Device Attached.
     20b:	0d 0a 00                                            ...

0000020e <__c.4506>:
     20e:	1b 5b 33 36 6d 4d 6f 75 73 65 20 48 6f 73 74 20     .[36mMouse Host 
     21e:	44 65 6d 6f 20 72 75 6e 6e 69 6e 67 2e 0d 0a 1b     Demo running....
     22e:	5b 33 37 6d 00 00                                   [37m..

00000234 <__ctors_end>:
     234:	11 24       	eor	r1, r1
     236:	1f be       	out	0x3f, r1	; 63
     238:	cf ef       	ldi	r28, 0xFF	; 255
     23a:	d0 e2       	ldi	r29, 0x20	; 32
     23c:	de bf       	out	0x3e, r29	; 62
     23e:	cd bf       	out	0x3d, r28	; 61

00000240 <__do_copy_data>:
     240:	11 e0       	ldi	r17, 0x01	; 1
     242:	a0 e0       	ldi	r26, 0x00	; 0
     244:	b1 e0       	ldi	r27, 0x01	; 1
     246:	e4 e0       	ldi	r30, 0x04	; 4
     248:	f6 e2       	ldi	r31, 0x26	; 38
     24a:	00 e0       	ldi	r16, 0x00	; 0
     24c:	0b bf       	out	0x3b, r16	; 59
     24e:	02 c0       	rjmp	.+4      	; 0x254 <__do_copy_data+0x14>
     250:	07 90       	elpm	r0, Z+
     252:	0d 92       	st	X+, r0
     254:	a4 32       	cpi	r26, 0x24	; 36
     256:	b1 07       	cpc	r27, r17
     258:	d9 f7       	brne	.-10     	; 0x250 <__do_copy_data+0x10>

0000025a <__do_clear_bss>:
     25a:	15 e0       	ldi	r17, 0x05	; 5
     25c:	a4 e2       	ldi	r26, 0x24	; 36
     25e:	b1 e0       	ldi	r27, 0x01	; 1
     260:	01 c0       	rjmp	.+2      	; 0x264 <.do_clear_bss_start>

00000262 <.do_clear_bss_loop>:
     262:	1d 92       	st	X+, r1

00000264 <.do_clear_bss_start>:
     264:	af 31       	cpi	r26, 0x1F	; 31
     266:	b1 07       	cpc	r27, r17
     268:	e1 f7       	brne	.-8      	; 0x262 <.do_clear_bss_loop>
     26a:	04 d2       	rcall	.+1032   	; 0x674 <main>
     26c:	0c 94 00 13 	jmp	0x2600	; 0x2600 <_exit>

00000270 <__bad_interrupt>:
     270:	c7 ce       	rjmp	.-626    	; 0x0 <__vectors>

00000272 <CALLBACK_HIDParser_FilterHIDReportItem>:
 *  \param[in] CurrentItem  Pointer to the item the HID report parser is currently working with
 *
 *  \return Boolean true if the item should be stored into the HID report structure, false if it should be discarded
 */
bool CALLBACK_HIDParser_FilterHIDReportItem(HID_ReportItem_t* const CurrentItem)
{
     272:	dc 01       	movw	r26, r24

	/* Iterate through the item's collection path, until either the root collection node or a collection with the
	 * Mouse Usage is found - this prevents Joysticks, which use identical descriptors except for the Joystick usage
	 * parent node, from being erroneously treated as a mouse by the demo
	 */
	for (HID_CollectionPath_t* CurrPath = CurrentItem->CollectionPath; CurrPath != NULL; CurrPath = CurrPath->Parent)
     274:	16 96       	adiw	r26, 0x06	; 6
     276:	ed 91       	ld	r30, X+
     278:	fc 91       	ld	r31, X
     27a:	17 97       	sbiw	r26, 0x07	; 7
     27c:	0b c0       	rjmp	.+22     	; 0x294 <CALLBACK_HIDParser_FilterHIDReportItem+0x22>
	{
		if ((CurrPath->Usage.Page  == USAGE_PAGE_GENERIC_DCTRL) &&
     27e:	81 81       	ldd	r24, Z+1	; 0x01
     280:	92 81       	ldd	r25, Z+2	; 0x02
     282:	01 97       	sbiw	r24, 0x01	; 1
     284:	21 f4       	brne	.+8      	; 0x28e <CALLBACK_HIDParser_FilterHIDReportItem+0x1c>
     286:	83 81       	ldd	r24, Z+3	; 0x03
     288:	94 81       	ldd	r25, Z+4	; 0x04
     28a:	02 97       	sbiw	r24, 0x02	; 2
     28c:	39 f0       	breq	.+14     	; 0x29c <CALLBACK_HIDParser_FilterHIDReportItem+0x2a>

	/* Iterate through the item's collection path, until either the root collection node or a collection with the
	 * Mouse Usage is found - this prevents Joysticks, which use identical descriptors except for the Joystick usage
	 * parent node, from being erroneously treated as a mouse by the demo
	 */
	for (HID_CollectionPath_t* CurrPath = CurrentItem->CollectionPath; CurrPath != NULL; CurrPath = CurrPath->Parent)
     28e:	05 80       	ldd	r0, Z+5	; 0x05
     290:	f6 81       	ldd	r31, Z+6	; 0x06
     292:	e0 2d       	mov	r30, r0
     294:	30 97       	sbiw	r30, 0x00	; 0
     296:	99 f7       	brne	.-26     	; 0x27e <CALLBACK_HIDParser_FilterHIDReportItem+0xc>
     298:	80 e0       	ldi	r24, 0x00	; 0
     29a:	08 95       	ret

	/* Check the attributes of the current item - see if we are interested in it or not;
	 * only store BUTTON and GENERIC_DESKTOP_CONTROL items into the Processed HID Report
	 * structure to save RAM and ignore the rest
	 */
	return ((CurrentItem->Attributes.Usage.Page == USAGE_PAGE_BUTTON) ||
     29c:	19 96       	adiw	r26, 0x09	; 9
     29e:	8d 91       	ld	r24, X+
     2a0:	9c 91       	ld	r25, X
     2a2:	1a 97       	sbiw	r26, 0x0a	; 10
     2a4:	89 30       	cpi	r24, 0x09	; 9
     2a6:	91 05       	cpc	r25, r1
     2a8:	21 f0       	breq	.+8      	; 0x2b2 <CALLBACK_HIDParser_FilterHIDReportItem+0x40>
     2aa:	20 e0       	ldi	r18, 0x00	; 0
     2ac:	30 e0       	ldi	r19, 0x00	; 0
     2ae:	01 97       	sbiw	r24, 0x01	; 1
     2b0:	11 f4       	brne	.+4      	; 0x2b6 <CALLBACK_HIDParser_FilterHIDReportItem+0x44>
     2b2:	21 e0       	ldi	r18, 0x01	; 1
     2b4:	30 e0       	ldi	r19, 0x00	; 0
     2b6:	82 2f       	mov	r24, r18
	        (CurrentItem->Attributes.Usage.Page == USAGE_PAGE_GENERIC_DCTRL));
}
     2b8:	08 95       	ret

000002ba <EVENT_USB_Host_DeviceEnumerationFailed>:
 *  enumerating an attached USB device.
 */
void EVENT_USB_Host_DeviceEnumerationFailed(const uint8_t ErrorCode,
                                            const uint8_t SubErrorCode)
{
	printf_P(PSTR(ESC_FG_RED "Dev Enum Error\r\n"
     2ba:	90 91 0a 05 	lds	r25, 0x050A
     2be:	2d b7       	in	r18, 0x3d	; 61
     2c0:	3e b7       	in	r19, 0x3e	; 62
     2c2:	28 50       	subi	r18, 0x08	; 8
     2c4:	30 40       	sbci	r19, 0x00	; 0
     2c6:	0f b6       	in	r0, 0x3f	; 63
     2c8:	f8 94       	cli
     2ca:	3e bf       	out	0x3e, r19	; 62
     2cc:	0f be       	out	0x3f, r0	; 63
     2ce:	2d bf       	out	0x3d, r18	; 61
     2d0:	ed b7       	in	r30, 0x3d	; 61
     2d2:	fe b7       	in	r31, 0x3e	; 62
     2d4:	31 96       	adiw	r30, 0x01	; 1
     2d6:	28 e9       	ldi	r18, 0x98	; 152
     2d8:	30 e0       	ldi	r19, 0x00	; 0
     2da:	ad b7       	in	r26, 0x3d	; 61
     2dc:	be b7       	in	r27, 0x3e	; 62
     2de:	12 96       	adiw	r26, 0x02	; 2
     2e0:	3c 93       	st	X, r19
     2e2:	2e 93       	st	-X, r18
     2e4:	11 97       	sbiw	r26, 0x01	; 1
     2e6:	82 83       	std	Z+2, r24	; 0x02
     2e8:	13 82       	std	Z+3, r1	; 0x03
     2ea:	64 83       	std	Z+4, r22	; 0x04
     2ec:	15 82       	std	Z+5, r1	; 0x05
     2ee:	96 83       	std	Z+6, r25	; 0x06
     2f0:	17 82       	std	Z+7, r1	; 0x07
     2f2:	0e 94 10 10 	call	0x2020	; 0x2020 <printf_P>
				PORTD &= ~LEDMask;
			}

			static inline void LEDs_SetAllLEDs(const uint8_t LEDMask)
			{
				PORTD = ((PORTD & ~LEDS_ALL_LEDS) | LEDMask);
     2f6:	8b b1       	in	r24, 0x0b	; 11
     2f8:	8f 70       	andi	r24, 0x0F	; 15
     2fa:	80 69       	ori	r24, 0x90	; 144
     2fc:	8b b9       	out	0x0b, r24	; 11
     2fe:	2d b7       	in	r18, 0x3d	; 61
     300:	3e b7       	in	r19, 0x3e	; 62
     302:	28 5f       	subi	r18, 0xF8	; 248
     304:	3f 4f       	sbci	r19, 0xFF	; 255
     306:	0f b6       	in	r0, 0x3f	; 63
     308:	f8 94       	cli
     30a:	3e bf       	out	0x3e, r19	; 62
     30c:	0f be       	out	0x3f, r0	; 63
     30e:	2d bf       	out	0x3d, r18	; 61
	                         " -- Error Code %d\r\n"
	                         " -- Sub Error Code %d\r\n"
	                         " -- In State %d\r\n" ESC_FG_WHITE), ErrorCode, SubErrorCode, USB_HostState);

	LEDs_SetAllLEDs(LEDMASK_USB_ERROR);
}
     310:	08 95       	ret

00000312 <EVENT_USB_Host_HostError>:
	LEDs_SetAllLEDs(LEDMASK_USB_READY);
}

/** Event handler for the USB_HostError event. This indicates that a hardware error occurred while in host mode. */
void EVENT_USB_Host_HostError(const uint8_t ErrorCode)
{
     312:	1f 93       	push	r17
     314:	18 2f       	mov	r17, r24
	USB_Disable();
     316:	9f d4       	rcall	.+2366   	; 0xc56 <USB_Disable>

	printf_P(PSTR(ESC_FG_RED "Host Mode Error\r\n"
     318:	00 d0       	rcall	.+0      	; 0x31a <EVENT_USB_Host_HostError+0x8>
     31a:	00 d0       	rcall	.+0      	; 0x31c <EVENT_USB_Host_HostError+0xa>
     31c:	ed b7       	in	r30, 0x3d	; 61
     31e:	fe b7       	in	r31, 0x3e	; 62
     320:	31 96       	adiw	r30, 0x01	; 1
     322:	8e ee       	ldi	r24, 0xEE	; 238
     324:	90 e0       	ldi	r25, 0x00	; 0
     326:	ad b7       	in	r26, 0x3d	; 61
     328:	be b7       	in	r27, 0x3e	; 62
     32a:	12 96       	adiw	r26, 0x02	; 2
     32c:	9c 93       	st	X, r25
     32e:	8e 93       	st	-X, r24
     330:	11 97       	sbiw	r26, 0x01	; 1
     332:	12 83       	std	Z+2, r17	; 0x02
     334:	13 82       	std	Z+3, r1	; 0x03
     336:	0e 94 10 10 	call	0x2020	; 0x2020 <printf_P>
     33a:	8b b1       	in	r24, 0x0b	; 11
     33c:	8f 70       	andi	r24, 0x0F	; 15
     33e:	80 69       	ori	r24, 0x90	; 144
     340:	8b b9       	out	0x0b, r24	; 11
     342:	0f 90       	pop	r0
     344:	0f 90       	pop	r0
     346:	0f 90       	pop	r0
     348:	0f 90       	pop	r0
     34a:	ff cf       	rjmp	.-2      	; 0x34a <EVENT_USB_Host_HostError+0x38>

0000034c <EVENT_USB_Host_DeviceUnattached>:
/** Event handler for the USB_DeviceUnattached event. This indicates that a device has been removed from the host, and
 *  stops the library USB task management process.
 */
void EVENT_USB_Host_DeviceUnattached(void)
{
	puts_P(PSTR("\r\nDevice Unattached.\r\n"));
     34c:	84 ee       	ldi	r24, 0xE4	; 228
     34e:	91 e0       	ldi	r25, 0x01	; 1
     350:	0e 94 32 10 	call	0x2064	; 0x2064 <puts_P>
     354:	8b b1       	in	r24, 0x0b	; 11
     356:	8f 70       	andi	r24, 0x0F	; 15
     358:	80 61       	ori	r24, 0x10	; 16
     35a:	8b b9       	out	0x0b, r24	; 11
	LEDs_SetAllLEDs(LEDMASK_USB_NOTREADY);
}
     35c:	08 95       	ret

0000035e <EVENT_USB_Host_DeviceAttached>:
/** Event handler for the USB_DeviceAttached event. This indicates that a device has been attached to the host, and
 *  starts the library USB task to begin the enumeration and USB management process.
 */
void EVENT_USB_Host_DeviceAttached(void)
{
	puts_P(PSTR("Device Attached.\r\n"));
     35e:	8b ef       	ldi	r24, 0xFB	; 251
     360:	91 e0       	ldi	r25, 0x01	; 1
     362:	0e 94 32 10 	call	0x2064	; 0x2064 <puts_P>
     366:	8b b1       	in	r24, 0x0b	; 11
     368:	8f 70       	andi	r24, 0x0F	; 15
     36a:	80 6a       	ori	r24, 0xA0	; 160
     36c:	8b b9       	out	0x0b, r24	; 11
	LEDs_SetAllLEDs(LEDMASK_USB_ENUMERATING);
}
     36e:	08 95       	ret

00000370 <EVENT_USB_Host_DeviceEnumerationComplete>:

/** Event handler for the USB_DeviceEnumerationComplete event. This indicates that a device has been successfully
 *  enumerated by the host and is now ready to be used by the application.
 */
void EVENT_USB_Host_DeviceEnumerationComplete(void)
{
     370:	0f 93       	push	r16
     372:	1f 93       	push	r17
     374:	df 93       	push	r29
     376:	cf 93       	push	r28
     378:	cd b7       	in	r28, 0x3d	; 61
     37a:	de b7       	in	r29, 0x3e	; 62
     37c:	c2 50       	subi	r28, 0x02	; 2
     37e:	d2 40       	sbci	r29, 0x02	; 2
     380:	0f b6       	in	r0, 0x3f	; 63
     382:	f8 94       	cli
     384:	de bf       	out	0x3e, r29	; 62
     386:	0f be       	out	0x3f, r0	; 63
     388:	cd bf       	out	0x3d, r28	; 61
     38a:	8b b1       	in	r24, 0x0b	; 11
     38c:	8f 70       	andi	r24, 0x0F	; 15
     38e:	80 6a       	ori	r24, 0xA0	; 160
     390:	8b b9       	out	0x0b, r24	; 11
	LEDs_SetAllLEDs(LEDMASK_USB_ENUMERATING);

	uint16_t ConfigDescriptorSize;
	uint8_t  ConfigDescriptorData[512];

	if (USB_Host_GetDeviceConfigDescriptor(1, &ConfigDescriptorSize, ConfigDescriptorData,
     392:	8e 01       	movw	r16, r28
     394:	0d 5f       	subi	r16, 0xFD	; 253
     396:	1f 4f       	sbci	r17, 0xFF	; 255
     398:	81 e0       	ldi	r24, 0x01	; 1
     39a:	be 01       	movw	r22, r28
     39c:	6f 5f       	subi	r22, 0xFF	; 255
     39e:	7f 4f       	sbci	r23, 0xFF	; 255
     3a0:	a8 01       	movw	r20, r16
     3a2:	20 e0       	ldi	r18, 0x00	; 0
     3a4:	32 e0       	ldi	r19, 0x02	; 2
     3a6:	aa d5       	rcall	.+2900   	; 0xefc <USB_Host_GetDeviceConfigDescriptor>
     3a8:	88 23       	and	r24, r24
     3aa:	19 f0       	breq	.+6      	; 0x3b2 <EVENT_USB_Host_DeviceEnumerationComplete+0x42>
	                                       sizeof(ConfigDescriptorData)) != HOST_GETCONFIG_Successful)
	{
		puts_P(PSTR("Error Retrieving Configuration Descriptor.\r\n"));
     3ac:	87 eb       	ldi	r24, 0xB7	; 183
     3ae:	91 e0       	ldi	r25, 0x01	; 1
     3b0:	12 c0       	rjmp	.+36     	; 0x3d6 <EVENT_USB_Host_DeviceEnumerationComplete+0x66>
		LEDs_SetAllLEDs(LEDMASK_USB_ERROR);
		return;
	}

	if (HID_Host_ConfigurePipes(&Mouse_HID_Interface,
     3b2:	69 81       	ldd	r22, Y+1	; 0x01
     3b4:	7a 81       	ldd	r23, Y+2	; 0x02
     3b6:	80 e0       	ldi	r24, 0x00	; 0
     3b8:	91 e0       	ldi	r25, 0x01	; 1
     3ba:	a8 01       	movw	r20, r16
     3bc:	0e 94 f5 0e 	call	0x1dea	; 0x1dea <HID_Host_ConfigurePipes>
     3c0:	88 23       	and	r24, r24
     3c2:	19 f0       	breq	.+6      	; 0x3ca <EVENT_USB_Host_DeviceEnumerationComplete+0x5a>
	                            ConfigDescriptorSize, ConfigDescriptorData) != HID_ENUMERROR_NoError)
	{
		puts_P(PSTR("Attached Device Not a Valid Mouse.\r\n"));
     3c4:	82 e9       	ldi	r24, 0x92	; 146
     3c6:	91 e0       	ldi	r25, 0x01	; 1
     3c8:	06 c0       	rjmp	.+12     	; 0x3d6 <EVENT_USB_Host_DeviceEnumerationComplete+0x66>
		LEDs_SetAllLEDs(LEDMASK_USB_ERROR);
		return;
	}

	if (USB_Host_SetDeviceConfiguration(1) != HOST_SENDCONTROL_Successful)
     3ca:	81 e0       	ldi	r24, 0x01	; 1
     3cc:	22 d7       	rcall	.+3652   	; 0x1212 <USB_Host_SetDeviceConfiguration>
     3ce:	88 23       	and	r24, r24
     3d0:	41 f0       	breq	.+16     	; 0x3e2 <EVENT_USB_Host_DeviceEnumerationComplete+0x72>
	{
		puts_P(PSTR("Error Setting Device Configuration.\r\n"));
     3d2:	8c e6       	ldi	r24, 0x6C	; 108
     3d4:	91 e0       	ldi	r25, 0x01	; 1
     3d6:	0e 94 32 10 	call	0x2064	; 0x2064 <puts_P>
     3da:	8b b1       	in	r24, 0x0b	; 11
     3dc:	8f 70       	andi	r24, 0x0F	; 15
     3de:	80 69       	ori	r24, 0x90	; 144
     3e0:	18 c0       	rjmp	.+48     	; 0x412 <EVENT_USB_Host_DeviceEnumerationComplete+0xa2>
		LEDs_SetAllLEDs(LEDMASK_USB_ERROR);
		return;
	}

	if (HID_Host_SetReportProtocol(&Mouse_HID_Interface) != 0)
     3e2:	80 e0       	ldi	r24, 0x00	; 0
     3e4:	91 e0       	ldi	r25, 0x01	; 1
     3e6:	0e 94 09 0e 	call	0x1c12	; 0x1c12 <HID_Host_SetReportProtocol>
     3ea:	88 23       	and	r24, r24
     3ec:	59 f0       	breq	.+22     	; 0x404 <EVENT_USB_Host_DeviceEnumerationComplete+0x94>
	{
		puts_P(PSTR("Error Setting Report Protocol Mode or Not a Valid Mouse.\r\n"));
     3ee:	81 e3       	ldi	r24, 0x31	; 49
     3f0:	91 e0       	ldi	r25, 0x01	; 1
     3f2:	0e 94 32 10 	call	0x2064	; 0x2064 <puts_P>
     3f6:	8b b1       	in	r24, 0x0b	; 11
     3f8:	8f 70       	andi	r24, 0x0F	; 15
     3fa:	80 69       	ori	r24, 0x90	; 144
     3fc:	8b b9       	out	0x0b, r24	; 11
		LEDs_SetAllLEDs(LEDMASK_USB_ERROR);
		USB_Host_SetDeviceConfiguration(0);
     3fe:	80 e0       	ldi	r24, 0x00	; 0
     400:	08 d7       	rcall	.+3600   	; 0x1212 <USB_Host_SetDeviceConfiguration>
     402:	08 c0       	rjmp	.+16     	; 0x414 <EVENT_USB_Host_DeviceEnumerationComplete+0xa4>
		return;
	}

	puts_P(PSTR("Mouse Enumerated.\r\n"));
     404:	8d e1       	ldi	r24, 0x1D	; 29
     406:	91 e0       	ldi	r25, 0x01	; 1
     408:	0e 94 32 10 	call	0x2064	; 0x2064 <puts_P>
     40c:	8b b1       	in	r24, 0x0b	; 11
     40e:	8f 70       	andi	r24, 0x0F	; 15
     410:	80 66       	ori	r24, 0x60	; 96
     412:	8b b9       	out	0x0b, r24	; 11
	LEDs_SetAllLEDs(LEDMASK_USB_READY);
}
     414:	ce 5f       	subi	r28, 0xFE	; 254
     416:	dd 4f       	sbci	r29, 0xFD	; 253
     418:	0f b6       	in	r0, 0x3f	; 63
     41a:	f8 94       	cli
     41c:	de bf       	out	0x3e, r29	; 62
     41e:	0f be       	out	0x3f, r0	; 63
     420:	cd bf       	out	0x3d, r28	; 61
     422:	cf 91       	pop	r28
     424:	df 91       	pop	r29
     426:	1f 91       	pop	r17
     428:	0f 91       	pop	r16
     42a:	08 95       	ret

0000042c <MouseHost_Task>:

/** Task to manage an enumerated USB mouse once connected, to display movement
 *  data as it is received.
 */
void MouseHost_Task(void)
{
     42c:	5f 92       	push	r5
     42e:	6f 92       	push	r6
     430:	7f 92       	push	r7
     432:	8f 92       	push	r8
     434:	9f 92       	push	r9
     436:	af 92       	push	r10
     438:	bf 92       	push	r11
     43a:	cf 92       	push	r12
     43c:	df 92       	push	r13
     43e:	ef 92       	push	r14
     440:	ff 92       	push	r15
     442:	0f 93       	push	r16
     444:	1f 93       	push	r17
     446:	df 93       	push	r29
     448:	cf 93       	push	r28
     44a:	cd b7       	in	r28, 0x3d	; 61
     44c:	de b7       	in	r29, 0x3e	; 62
			}
		}

		LEDs_SetAllLEDs(LEDMask);
	}
}
     44e:	ad b6       	in	r10, 0x3d	; 61
     450:	be b6       	in	r11, 0x3e	; 62
/** Task to manage an enumerated USB mouse once connected, to display movement
 *  data as it is received.
 */
void MouseHost_Task(void)
{
	if (USB_HostState != HOST_STATE_Configured)
     452:	80 91 0a 05 	lds	r24, 0x050A
     456:	8b 30       	cpi	r24, 0x0B	; 11
     458:	09 f0       	breq	.+2      	; 0x45c <MouseHost_Task+0x30>
     45a:	ad c0       	rjmp	.+346    	; 0x5b6 <MouseHost_Task+0x18a>
	  return;
	
	if (HID_Host_IsReportReceived(&Mouse_HID_Interface))
     45c:	80 e0       	ldi	r24, 0x00	; 0
     45e:	91 e0       	ldi	r25, 0x01	; 1
     460:	0e 94 ed 0d 	call	0x1bda	; 0x1bda <HID_Host_IsReportReceived>
     464:	88 23       	and	r24, r24
     466:	09 f4       	brne	.+2      	; 0x46a <MouseHost_Task+0x3e>
     468:	a6 c0       	rjmp	.+332    	; 0x5b6 <MouseHost_Task+0x18a>
     46a:	7d b6       	in	r7, 0x3d	; 61
     46c:	6e b6       	in	r6, 0x3e	; 62
	{
		uint8_t MouseReport[Mouse_HID_Interface.State.LargestReportSize];
     46e:	80 91 12 01 	lds	r24, 0x0112
     472:	2d b7       	in	r18, 0x3d	; 61
     474:	3e b7       	in	r19, 0x3e	; 62
     476:	28 1b       	sub	r18, r24
     478:	31 09       	sbc	r19, r1
     47a:	0f b6       	in	r0, 0x3f	; 63
     47c:	f8 94       	cli
     47e:	3e bf       	out	0x3e, r19	; 62
     480:	0f be       	out	0x3f, r0	; 63
     482:	2d bf       	out	0x3d, r18	; 61
     484:	0d b7       	in	r16, 0x3d	; 61
     486:	1e b7       	in	r17, 0x3e	; 62
     488:	0f 5f       	subi	r16, 0xFF	; 255
     48a:	1f 4f       	sbci	r17, 0xFF	; 255
		HID_Host_ReceiveReport(&Mouse_HID_Interface, &MouseReport);
     48c:	80 e0       	ldi	r24, 0x00	; 0
     48e:	91 e0       	ldi	r25, 0x01	; 1
     490:	b8 01       	movw	r22, r16
     492:	0e 94 a9 0e 	call	0x1d52	; 0x1d52 <HID_Host_ReceiveReport>
		for (uint8_t ReportNumber = 0; ReportNumber < HIDReportInfo.TotalReportItems; ReportNumber++)
		{
			HID_ReportItem_t* ReportItem = &HIDReportInfo.ReportItems[ReportNumber];

			/* Update the report item value if it is contained within the current report */
			if (!(USB_GetHIDReportItemInfo(MouseReport, ReportItem)))
     496:	48 01       	movw	r8, r16
     498:	ff 24       	eor	r15, r15
     49a:	ee 24       	eor	r14, r14

		uint8_t LEDMask = LEDS_NO_LEDS;

		for (uint8_t ReportNumber = 0; ReportNumber < HIDReportInfo.TotalReportItems; ReportNumber++)
		{
			HID_ReportItem_t* ReportItem = &HIDReportInfo.ReportItems[ReportNumber];
     49c:	4a e2       	ldi	r20, 0x2A	; 42
     49e:	54 2e       	mov	r5, r20
			else if ((ReportItem->Attributes.Usage.Page   == USAGE_PAGE_GENERIC_DCTRL) &&
			         ((ReportItem->Attributes.Usage.Usage == USAGE_X)                  ||
			          (ReportItem->Attributes.Usage.Usage == USAGE_Y))                 &&
			         (ReportItem->ItemType                == HID_REPORT_ITEM_In))
			{
				int16_t DeltaMovement = HID_ALIGN_DATA(ReportItem, int16_t);
     4a0:	30 e1       	ldi	r19, 0x10	; 16
     4a2:	c3 2e       	mov	r12, r19
     4a4:	d1 2c       	mov	r13, r1
     4a6:	76 c0       	rjmp	.+236    	; 0x594 <MouseHost_Task+0x168>

		uint8_t LEDMask = LEDS_NO_LEDS;

		for (uint8_t ReportNumber = 0; ReportNumber < HIDReportInfo.TotalReportItems; ReportNumber++)
		{
			HID_ReportItem_t* ReportItem = &HIDReportInfo.ReportItems[ReportNumber];
     4a8:	e5 9c       	mul	r14, r5
     4aa:	80 01       	movw	r16, r0
     4ac:	11 24       	eor	r1, r1
     4ae:	0b 5d       	subi	r16, 0xDB	; 219
     4b0:	1e 4f       	sbci	r17, 0xFE	; 254

			/* Update the report item value if it is contained within the current report */
			if (!(USB_GetHIDReportItemInfo(MouseReport, ReportItem)))
     4b2:	c4 01       	movw	r24, r8
     4b4:	b8 01       	movw	r22, r16
     4b6:	e4 d6       	rcall	.+3528   	; 0x1280 <USB_GetHIDReportItemInfo>
     4b8:	88 23       	and	r24, r24
     4ba:	09 f4       	brne	.+2      	; 0x4be <MouseHost_Task+0x92>
     4bc:	6a c0       	rjmp	.+212    	; 0x592 <MouseHost_Task+0x166>
			  continue;

			/* Determine what report item is being tested, process updated value as needed */
			if ((ReportItem->Attributes.Usage.Page        == USAGE_PAGE_BUTTON) &&
     4be:	f8 01       	movw	r30, r16
     4c0:	81 85       	ldd	r24, Z+9	; 0x09
     4c2:	92 85       	ldd	r25, Z+10	; 0x0a
     4c4:	89 30       	cpi	r24, 0x09	; 9
     4c6:	91 05       	cpc	r25, r1
     4c8:	81 f4       	brne	.+32     	; 0x4ea <MouseHost_Task+0xbe>
     4ca:	82 81       	ldd	r24, Z+2	; 0x02
     4cc:	88 23       	and	r24, r24
     4ce:	09 f0       	breq	.+2      	; 0x4d2 <MouseHost_Task+0xa6>
     4d0:	60 c0       	rjmp	.+192    	; 0x592 <MouseHost_Task+0x166>
			    (ReportItem->ItemType                     == HID_REPORT_ITEM_In))
			{
				if (ReportItem->Value)
     4d2:	82 a1       	ldd	r24, Z+34	; 0x22
     4d4:	93 a1       	ldd	r25, Z+35	; 0x23
     4d6:	a4 a1       	ldd	r26, Z+36	; 0x24
     4d8:	b5 a1       	ldd	r27, Z+37	; 0x25
     4da:	00 97       	sbiw	r24, 0x00	; 0
     4dc:	a1 05       	cpc	r26, r1
     4de:	b1 05       	cpc	r27, r1
     4e0:	09 f4       	brne	.+2      	; 0x4e4 <MouseHost_Task+0xb8>
     4e2:	57 c0       	rjmp	.+174    	; 0x592 <MouseHost_Task+0x166>
     4e4:	20 ef       	ldi	r18, 0xF0	; 240
     4e6:	f2 2e       	mov	r15, r18
     4e8:	54 c0       	rjmp	.+168    	; 0x592 <MouseHost_Task+0x166>
				  LEDMask = LEDS_ALL_LEDS;
			}
			else if ((ReportItem->Attributes.Usage.Page   == USAGE_PAGE_GENERIC_DCTRL) &&
     4ea:	01 97       	sbiw	r24, 0x01	; 1
     4ec:	09 f0       	breq	.+2      	; 0x4f0 <MouseHost_Task+0xc4>
     4ee:	51 c0       	rjmp	.+162    	; 0x592 <MouseHost_Task+0x166>
     4f0:	f8 01       	movw	r30, r16
     4f2:	63 85       	ldd	r22, Z+11	; 0x0b
     4f4:	74 85       	ldd	r23, Z+12	; 0x0c
     4f6:	68 33       	cpi	r22, 0x38	; 56
     4f8:	71 05       	cpc	r23, r1
     4fa:	f9 f4       	brne	.+62     	; 0x53a <MouseHost_Task+0x10e>
     4fc:	82 81       	ldd	r24, Z+2	; 0x02
     4fe:	88 23       	and	r24, r24
     500:	e1 f4       	brne	.+56     	; 0x53a <MouseHost_Task+0x10e>
			         (ReportItem->Attributes.Usage.Usage  == USAGE_SCROLL_WHEEL)       &&
			         (ReportItem->ItemType                == HID_REPORT_ITEM_In))
			{
				int16_t WheelDelta = HID_ALIGN_DATA(ReportItem, int16_t);
     502:	80 85       	ldd	r24, Z+8	; 0x08
     504:	96 01       	movw	r18, r12
     506:	28 1b       	sub	r18, r24
     508:	31 09       	sbc	r19, r1
     50a:	c9 01       	movw	r24, r18
     50c:	22 a1       	ldd	r18, Z+34	; 0x22
     50e:	33 a1       	ldd	r19, Z+35	; 0x23
     510:	44 a1       	ldd	r20, Z+36	; 0x24
     512:	55 a1       	ldd	r21, Z+37	; 0x25
     514:	04 c0       	rjmp	.+8      	; 0x51e <MouseHost_Task+0xf2>
     516:	22 0f       	add	r18, r18
     518:	33 1f       	adc	r19, r19
     51a:	44 1f       	adc	r20, r20
     51c:	55 1f       	adc	r21, r21
     51e:	8a 95       	dec	r24
     520:	d2 f7       	brpl	.-12     	; 0x516 <MouseHost_Task+0xea>

				if (WheelDelta)
     522:	21 15       	cp	r18, r1
     524:	31 05       	cpc	r19, r1
     526:	a9 f1       	breq	.+106    	; 0x592 <MouseHost_Task+0x166>
				  LEDMask = (LEDS_LED1 | LEDS_LED2 | ((WheelDelta > 0) ? LEDS_LED3 : LEDS_LED4));
     528:	12 16       	cp	r1, r18
     52a:	13 06       	cpc	r1, r19
     52c:	1c f0       	brlt	.+6      	; 0x534 <MouseHost_Task+0x108>
     52e:	90 e7       	ldi	r25, 0x70	; 112
     530:	f9 2e       	mov	r15, r25
     532:	2f c0       	rjmp	.+94     	; 0x592 <MouseHost_Task+0x166>
     534:	80 eb       	ldi	r24, 0xB0	; 176
     536:	f8 2e       	mov	r15, r24
     538:	2c c0       	rjmp	.+88     	; 0x592 <MouseHost_Task+0x166>
			}
			else if ((ReportItem->Attributes.Usage.Page   == USAGE_PAGE_GENERIC_DCTRL) &&
     53a:	cb 01       	movw	r24, r22
     53c:	c0 97       	sbiw	r24, 0x30	; 48
     53e:	02 97       	sbiw	r24, 0x02	; 2
     540:	40 f5       	brcc	.+80     	; 0x592 <MouseHost_Task+0x166>
     542:	f8 01       	movw	r30, r16
     544:	82 81       	ldd	r24, Z+2	; 0x02
     546:	88 23       	and	r24, r24
     548:	21 f5       	brne	.+72     	; 0x592 <MouseHost_Task+0x166>
			         ((ReportItem->Attributes.Usage.Usage == USAGE_X)                  ||
			          (ReportItem->Attributes.Usage.Usage == USAGE_Y))                 &&
			         (ReportItem->ItemType                == HID_REPORT_ITEM_In))
			{
				int16_t DeltaMovement = HID_ALIGN_DATA(ReportItem, int16_t);
     54a:	80 85       	ldd	r24, Z+8	; 0x08
     54c:	96 01       	movw	r18, r12
     54e:	28 1b       	sub	r18, r24
     550:	31 09       	sbc	r19, r1
     552:	c9 01       	movw	r24, r18
     554:	22 a1       	ldd	r18, Z+34	; 0x22
     556:	33 a1       	ldd	r19, Z+35	; 0x23
     558:	44 a1       	ldd	r20, Z+36	; 0x24
     55a:	55 a1       	ldd	r21, Z+37	; 0x25
     55c:	04 c0       	rjmp	.+8      	; 0x566 <MouseHost_Task+0x13a>
     55e:	22 0f       	add	r18, r18
     560:	33 1f       	adc	r19, r19
     562:	44 1f       	adc	r20, r20
     564:	55 1f       	adc	r21, r21
     566:	8a 95       	dec	r24
     568:	d2 f7       	brpl	.-12     	; 0x55e <MouseHost_Task+0x132>

				if (DeltaMovement)
     56a:	21 15       	cp	r18, r1
     56c:	31 05       	cpc	r19, r1
     56e:	89 f0       	breq	.+34     	; 0x592 <MouseHost_Task+0x166>
				{
					if (ReportItem->Attributes.Usage.Usage == USAGE_X)
     570:	60 33       	cpi	r22, 0x30	; 48
     572:	71 05       	cpc	r23, r1
     574:	39 f4       	brne	.+14     	; 0x584 <MouseHost_Task+0x158>
					  LEDMask |= ((DeltaMovement > 0) ? LEDS_LED1 : LEDS_LED2);
     576:	12 16       	cp	r1, r18
     578:	13 06       	cpc	r1, r19
     57a:	14 f0       	brlt	.+4      	; 0x580 <MouseHost_Task+0x154>
     57c:	80 e2       	ldi	r24, 0x20	; 32
     57e:	08 c0       	rjmp	.+16     	; 0x590 <MouseHost_Task+0x164>
     580:	80 e1       	ldi	r24, 0x10	; 16
     582:	06 c0       	rjmp	.+12     	; 0x590 <MouseHost_Task+0x164>
					else
					  LEDMask |= ((DeltaMovement > 0) ? LEDS_LED3 : LEDS_LED4);
     584:	12 16       	cp	r1, r18
     586:	13 06       	cpc	r1, r19
     588:	14 f0       	brlt	.+4      	; 0x58e <MouseHost_Task+0x162>
     58a:	80 e4       	ldi	r24, 0x40	; 64
     58c:	01 c0       	rjmp	.+2      	; 0x590 <MouseHost_Task+0x164>
     58e:	80 e8       	ldi	r24, 0x80	; 128
     590:	f8 2a       	or	r15, r24
		uint8_t MouseReport[Mouse_HID_Interface.State.LargestReportSize];
		HID_Host_ReceiveReport(&Mouse_HID_Interface, &MouseReport);

		uint8_t LEDMask = LEDS_NO_LEDS;

		for (uint8_t ReportNumber = 0; ReportNumber < HIDReportInfo.TotalReportItems; ReportNumber++)
     592:	e3 94       	inc	r14
     594:	80 91 24 01 	lds	r24, 0x0124
     598:	e8 16       	cp	r14, r24
     59a:	08 f4       	brcc	.+2      	; 0x59e <MouseHost_Task+0x172>
     59c:	85 cf       	rjmp	.-246    	; 0x4a8 <MouseHost_Task+0x7c>
     59e:	8b b1       	in	r24, 0x0b	; 11
     5a0:	8f 70       	andi	r24, 0x0F	; 15
     5a2:	f8 2a       	or	r15, r24
     5a4:	fb b8       	out	0x0b, r15	; 11
     5a6:	27 2d       	mov	r18, r7
     5a8:	36 2d       	mov	r19, r6
     5aa:	c9 01       	movw	r24, r18
     5ac:	0f b6       	in	r0, 0x3f	; 63
     5ae:	f8 94       	cli
     5b0:	9e bf       	out	0x3e, r25	; 62
     5b2:	0f be       	out	0x3f, r0	; 63
     5b4:	8d bf       	out	0x3d, r24	; 61
			}
		}

		LEDs_SetAllLEDs(LEDMask);
	}
}
     5b6:	0f b6       	in	r0, 0x3f	; 63
     5b8:	f8 94       	cli
     5ba:	be be       	out	0x3e, r11	; 62
     5bc:	0f be       	out	0x3f, r0	; 63
     5be:	ad be       	out	0x3d, r10	; 61
     5c0:	cf 91       	pop	r28
     5c2:	df 91       	pop	r29
     5c4:	1f 91       	pop	r17
     5c6:	0f 91       	pop	r16
     5c8:	ff 90       	pop	r15
     5ca:	ef 90       	pop	r14
     5cc:	df 90       	pop	r13
     5ce:	cf 90       	pop	r12
     5d0:	bf 90       	pop	r11
     5d2:	af 90       	pop	r10
     5d4:	9f 90       	pop	r9
     5d6:	8f 90       	pop	r8
     5d8:	7f 90       	pop	r7
     5da:	6f 90       	pop	r6
     5dc:	5f 90       	pop	r5
     5de:	08 95       	ret

000005e0 <SetupHardware>:

/** Configures the board hardware and chip peripherals for the demo's functionality. */
void SetupHardware(void)
{
	/* Disable watchdog if enabled by bootloader/fuses */
	MCUSR &= ~(1 << WDRF);
     5e0:	84 b7       	in	r24, 0x34	; 52
     5e2:	87 7f       	andi	r24, 0xF7	; 247
     5e4:	84 bf       	out	0x34, r24	; 52
	wdt_disable();
     5e6:	38 e1       	ldi	r19, 0x18	; 24
     5e8:	0f b6       	in	r0, 0x3f	; 63
     5ea:	f8 94       	cli
     5ec:	30 93 60 00 	sts	0x0060, r19
     5f0:	10 92 60 00 	sts	0x0060, r1
     5f4:	0f be       	out	0x3f, r0	; 63

	/* Disable clock division */
	clock_prescale_set(clock_div_1);
     5f6:	80 e0       	ldi	r24, 0x00	; 0
     5f8:	90 e0       	ldi	r25, 0x00	; 0
     5fa:	20 e8       	ldi	r18, 0x80	; 128
     5fc:	0f b6       	in	r0, 0x3f	; 63
     5fe:	f8 94       	cli
     600:	20 93 61 00 	sts	0x0061, r18
     604:	80 93 61 00 	sts	0x0061, r24
     608:	0f be       	out	0x3f, r0	; 63
			 *  \param[in] DoubleSpeed  Enables double speed mode when set, halving the sample time to double the baud rate.
			 */
			static inline void Serial_Init(const uint32_t BaudRate,
			                               const bool DoubleSpeed)
			{
				UBRR1  = (DoubleSpeed ? SERIAL_2X_UBBRVAL(BaudRate) : SERIAL_UBBRVAL(BaudRate));
     60a:	83 e3       	ldi	r24, 0x33	; 51
     60c:	90 e0       	ldi	r25, 0x00	; 0
     60e:	90 93 cd 00 	sts	0x00CD, r25
     612:	80 93 cc 00 	sts	0x00CC, r24

				UCSR1C = ((1 << UCSZ11) | (1 << UCSZ10));
     616:	86 e0       	ldi	r24, 0x06	; 6
     618:	80 93 ca 00 	sts	0x00CA, r24
				UCSR1A = (DoubleSpeed ? (1 << U2X1) : 0);
     61c:	10 92 c8 00 	sts	0x00C8, r1
				UCSR1B = ((1 << TXEN1)  | (1 << RXEN1));
     620:	30 93 c9 00 	sts	0x00C9, r19

				DDRD  |= (1 << 3);
     624:	53 9a       	sbi	0x0a, 3	; 10
				PORTD |= (1 << 2);
     626:	5a 9a       	sbi	0x0b, 2	; 11

		/* Inline Functions: */
		#if !defined(__DOXYGEN__)
			static inline void LEDs_Init(void)
			{
				DDRD  |=  LEDS_ALL_LEDS;
     628:	8a b1       	in	r24, 0x0a	; 10
     62a:	80 6f       	ori	r24, 0xF0	; 240
     62c:	8a b9       	out	0x0a, r24	; 10
				PORTD &= ~LEDS_ALL_LEDS;
     62e:	8b b1       	in	r24, 0x0b	; 11
     630:	8f 70       	andi	r24, 0x0F	; 15
     632:	8b b9       	out	0x0b, r24	; 11

	/* Hardware Initialization */
	Serial_Init(9600, false);
	LEDs_Init();
	USB_Init();
     634:	07 d3       	rcall	.+1550   	; 0xc44 <USB_Init>
			static inline void Serial_CreateStream(FILE* Stream)
			{
				if (!(Stream))
				{
					Stream = &USARTSerialStream;
					stdin  = Stream;
     636:	eb e0       	ldi	r30, 0x0B	; 11
     638:	f5 e0       	ldi	r31, 0x05	; 5
     63a:	f0 93 1a 05 	sts	0x051A, r31
     63e:	e0 93 19 05 	sts	0x0519, r30
					stdout = Stream;
     642:	f0 93 1c 05 	sts	0x051C, r31
     646:	e0 93 1b 05 	sts	0x051B, r30
				}
			
				*Stream = (FILE)FDEV_SETUP_STREAM(Serial_putchar, Serial_getchar, _FDEV_SETUP_RW);
     64a:	8e e0       	ldi	r24, 0x0E	; 14
     64c:	df 01       	movw	r26, r30
     64e:	1d 92       	st	X+, r1
     650:	8a 95       	dec	r24
     652:	e9 f7       	brne	.-6      	; 0x64e <SetupHardware+0x6e>
     654:	83 e0       	ldi	r24, 0x03	; 3
     656:	80 93 0e 05 	sts	0x050E, r24
     65a:	82 ef       	ldi	r24, 0xF2	; 242
     65c:	9f e0       	ldi	r25, 0x0F	; 15
     65e:	90 93 14 05 	sts	0x0514, r25
     662:	80 93 13 05 	sts	0x0513, r24
     666:	8c ef       	ldi	r24, 0xFC	; 252
     668:	9f e0       	ldi	r25, 0x0F	; 15
     66a:	90 93 16 05 	sts	0x0516, r25
     66e:	80 93 15 05 	sts	0x0515, r24

	/* Create a stdio stream for the serial port for stdin and stdout */
	Serial_CreateStream(NULL);
}
     672:	08 95       	ret

00000674 <main>:
/** Main program entry point. This routine configures the hardware required by the application, then
 *  enters a loop to run the application tasks in sequence.
 */
int main(void)
{
	SetupHardware();
     674:	b5 df       	rcall	.-150    	; 0x5e0 <SetupHardware>

	puts_P(PSTR(ESC_FG_CYAN "Mouse Host Demo running.\r\n" ESC_FG_WHITE));
     676:	8e e0       	ldi	r24, 0x0E	; 14
     678:	92 e0       	ldi	r25, 0x02	; 2
     67a:	0e 94 32 10 	call	0x2064	; 0x2064 <puts_P>
	sei();
     67e:	78 94       	sei
				PORTD &= ~LEDMask;
			}

			static inline void LEDs_SetAllLEDs(const uint8_t LEDMask)
			{
				PORTD = ((PORTD & ~LEDS_ALL_LEDS) | LEDMask);
     680:	8b b1       	in	r24, 0x0b	; 11
     682:	8f 70       	andi	r24, 0x0F	; 15
     684:	80 61       	ori	r24, 0x10	; 16
     686:	8b b9       	out	0x0b, r24	; 11

	LEDs_SetAllLEDs(LEDMASK_USB_NOTREADY);

	for (;;)
	{
		MouseHost_Task();
     688:	d1 de       	rcall	.-606    	; 0x42c <MouseHost_Task>

		HID_Host_USBTask(&Mouse_HID_Interface);
		USB_USBTask();
     68a:	e8 d5       	rcall	.+3024   	; 0x125c <USB_USBTask>
     68c:	fd cf       	rjmp	.-6      	; 0x688 <main+0x14>

0000068e <USB_Host_WaitMS>:
		USB_ResetInterface();
	}
}

uint8_t USB_Host_WaitMS(uint8_t MS)
{
     68e:	98 2f       	mov	r25, r24
			 *  \return Boolean \c true if the bus is currently suspended, \c false otherwise.
			 */
			static inline bool USB_Host_IsBusSuspended(void) ATTR_WARN_UNUSED_RESULT ATTR_ALWAYS_INLINE;
			static inline bool USB_Host_IsBusSuspended(void)
			{
				return ((UHCON & (1 << SOFEN)) ? false : true);
     690:	20 91 9e 00 	lds	r18, 0x009E
					case USB_INT_RXSTPI:
						return (UEIENX & (1 << RXSTPE));
					#endif
					#if defined(USB_CAN_BE_HOST)
					case USB_INT_HSOFI:
						return (UHIEN  & (1 << HSOFE));
     694:	30 91 a0 00 	lds	r19, 0x00A0
						UEIENX &= ~(1 << RXSTPE);
						break;
					#endif
					#if defined(USB_CAN_BE_HOST)
					case USB_INT_HSOFI:
						UHIEN  &= ~(1 << HSOFE);
     698:	80 91 a0 00 	lds	r24, 0x00A0
     69c:	8f 7d       	andi	r24, 0xDF	; 223
     69e:	80 93 a0 00 	sts	0x00A0, r24
						UEINTX &= ~(1 << RXSTPI);
						break;
					#endif
					#if defined(USB_CAN_BE_HOST)
					case USB_INT_HSOFI:
						UHINT  &= ~(1 << HSOFI);
     6a2:	80 91 9f 00 	lds	r24, 0x009F
     6a6:	8f 7d       	andi	r24, 0xDF	; 223
     6a8:	80 93 9f 00 	sts	0x009F, r24
			 *  host and attached device may occur.
			 */
			static inline void USB_Host_ResumeBus(void) ATTR_ALWAYS_INLINE;
			static inline void USB_Host_ResumeBus(void)
			{
				UHCON |=  (1 << SOFEN);
     6ac:	80 91 9e 00 	lds	r24, 0x009E
     6b0:	81 60       	ori	r24, 0x01	; 1
     6b2:	80 93 9e 00 	sts	0x009E, r24
     6b6:	28 c0       	rjmp	.+80     	; 0x708 <USB_Host_WaitMS+0x7a>
					case USB_INT_RXSTPI:
						return (UEINTX & (1 << RXSTPI));
					#endif
					#if defined(USB_CAN_BE_HOST)
					case USB_INT_HSOFI:
						return (UHINT  & (1 << HSOFI));
     6b8:	80 91 9f 00 	lds	r24, 0x009F

	USB_Host_ResumeBus();

	while (MS)
	{
		if (USB_INT_HasOccurred(USB_INT_HSOFI))
     6bc:	85 ff       	sbrs	r24, 5
     6be:	06 c0       	rjmp	.+12     	; 0x6cc <USB_Host_WaitMS+0x3e>
						UEINTX &= ~(1 << RXSTPI);
						break;
					#endif
					#if defined(USB_CAN_BE_HOST)
					case USB_INT_HSOFI:
						UHINT  &= ~(1 << HSOFI);
     6c0:	80 91 9f 00 	lds	r24, 0x009F
     6c4:	8f 7d       	andi	r24, 0xDF	; 223
     6c6:	80 93 9f 00 	sts	0x009F, r24
		{
			USB_INT_Clear(USB_INT_HSOFI);
			MS--;
     6ca:	91 50       	subi	r25, 0x01	; 1
		}

		if ((USB_HostState == HOST_STATE_Unattached) || (USB_CurrentMode != USB_MODE_Host))
     6cc:	80 91 0a 05 	lds	r24, 0x050A
     6d0:	81 30       	cpi	r24, 0x01	; 1
     6d2:	11 f4       	brne	.+4      	; 0x6d8 <USB_Host_WaitMS+0x4a>
     6d4:	91 e0       	ldi	r25, 0x01	; 1
     6d6:	1a c0       	rjmp	.+52     	; 0x70c <USB_Host_WaitMS+0x7e>
			 *  \return Boolean \c true if an error has occurred on the selected pipe, \c false otherwise.
			 */
			static inline bool Pipe_IsError(void) ATTR_WARN_UNUSED_RESULT ATTR_ALWAYS_INLINE;
			static inline bool Pipe_IsError(void)
			{
				return ((UPINTX & (1 << PERRI)) ? true : false);
     6d8:	80 91 a6 00 	lds	r24, 0x00A6
			ErrorCode = HOST_WAITERROR_DeviceDisconnect;

			break;
		}

		if (Pipe_IsError() == true)
     6dc:	84 ff       	sbrs	r24, 4
     6de:	09 c0       	rjmp	.+18     	; 0x6f2 <USB_Host_WaitMS+0x64>

			/** Clears the error flags for the currently selected pipe. */
			static inline void Pipe_ClearError(void) ATTR_ALWAYS_INLINE;
			static inline void Pipe_ClearError(void)
			{
				UPERRX = 0;
     6e0:	10 92 f5 00 	sts	0x00F5, r1
				UPINTX &= ~(1 << PERRI);
     6e4:	80 91 a6 00 	lds	r24, 0x00A6
     6e8:	8f 7e       	andi	r24, 0xEF	; 239
     6ea:	80 93 a6 00 	sts	0x00A6, r24
     6ee:	92 e0       	ldi	r25, 0x02	; 2
     6f0:	0d c0       	rjmp	.+26     	; 0x70c <USB_Host_WaitMS+0x7e>
			 *  \return Boolean \c true if the current pipe has been stalled by the attached device, \c false otherwise.
			 */
			static inline bool Pipe_IsStalled(void) ATTR_WARN_UNUSED_RESULT ATTR_ALWAYS_INLINE;
			static inline bool Pipe_IsStalled(void)
			{
				return ((UPINTX & (1 << RXSTALLI)) ? true : false);
     6f2:	80 91 a6 00 	lds	r24, 0x00A6
			ErrorCode = HOST_WAITERROR_PipeError;

			break;
		}

		if (Pipe_IsStalled() == true)
     6f6:	81 ff       	sbrs	r24, 1
     6f8:	07 c0       	rjmp	.+14     	; 0x708 <USB_Host_WaitMS+0x7a>
			 *  \ingroup Group_PipePacketManagement_AVR8
			 */
			static inline void Pipe_ClearStall(void) ATTR_ALWAYS_INLINE;
			static inline void Pipe_ClearStall(void)
			{
				UPINTX &= ~(1 << RXSTALLI);
     6fa:	80 91 a6 00 	lds	r24, 0x00A6
     6fe:	8d 7f       	andi	r24, 0xFD	; 253
     700:	80 93 a6 00 	sts	0x00A6, r24
     704:	93 e0       	ldi	r25, 0x03	; 3
     706:	02 c0       	rjmp	.+4      	; 0x70c <USB_Host_WaitMS+0x7e>
	USB_INT_Disable(USB_INT_HSOFI);
	USB_INT_Clear(USB_INT_HSOFI);

	USB_Host_ResumeBus();

	while (MS)
     708:	99 23       	and	r25, r25
     70a:	b1 f6       	brne	.-84     	; 0x6b8 <USB_Host_WaitMS+0x2a>

			break;
		}
	}

	if (BusSuspended)
     70c:	20 fd       	sbrc	r18, 0
     70e:	05 c0       	rjmp	.+10     	; 0x71a <USB_Host_WaitMS+0x8c>
			 *        some events (such as device disconnections) will not fire until the bus is resumed.
			 */
			static inline void USB_Host_SuspendBus(void) ATTR_ALWAYS_INLINE;
			static inline void USB_Host_SuspendBus(void)
			{
				UHCON &= ~(1 << SOFEN);
     710:	80 91 9e 00 	lds	r24, 0x009E
     714:	8e 7f       	andi	r24, 0xFE	; 254
     716:	80 93 9e 00 	sts	0x009E, r24
	  USB_Host_SuspendBus();

	if (HSOFIEnabled)
     71a:	35 ff       	sbrs	r19, 5
     71c:	05 c0       	rjmp	.+10     	; 0x728 <USB_Host_WaitMS+0x9a>
						UEIENX |= (1 << RXSTPE);
						break;
					#endif
					#if defined(USB_CAN_BE_HOST)
					case USB_INT_HSOFI:
						UHIEN  |= (1 << HSOFE);
     71e:	80 91 a0 00 	lds	r24, 0x00A0
     722:	80 62       	ori	r24, 0x20	; 32
     724:	80 93 a0 00 	sts	0x00A0, r24
	  USB_INT_Enable(USB_INT_HSOFI);

	return ErrorCode;
}
     728:	89 2f       	mov	r24, r25
     72a:	08 95       	ret

0000072c <USB_Host_ResetDevice>:
			 *  \return Boolean \c true if the bus is currently suspended, \c false otherwise.
			 */
			static inline bool USB_Host_IsBusSuspended(void) ATTR_WARN_UNUSED_RESULT ATTR_ALWAYS_INLINE;
			static inline bool USB_Host_IsBusSuspended(void)
			{
				return ((UHCON & (1 << SOFEN)) ? false : true);
     72c:	60 91 9e 00 	lds	r22, 0x009E
						break;
					case USB_INT_DCONNI:
						UHIEN  &= ~(1 << DCONNE);
						break;
					case USB_INT_DDISCI:
						UHIEN  &= ~(1 << DDISCE);
     730:	80 91 a0 00 	lds	r24, 0x00A0
     734:	8d 7f       	andi	r24, 0xFD	; 253
     736:	80 93 a0 00 	sts	0x00A0, r24
			 *  woken up automatically and the bus resumed after the reset has been correctly issued.
			 */
			static inline void USB_Host_ResetBus(void) ATTR_ALWAYS_INLINE;
			static inline void USB_Host_ResetBus(void)
			{
				UHCON |=  (1 << RESET);
     73a:	80 91 9e 00 	lds	r24, 0x009E
     73e:	82 60       	ori	r24, 0x02	; 2
     740:	80 93 9e 00 	sts	0x009E, r24
			 *  \return Boolean \c true if no bus reset is currently being sent, \c false otherwise.
			 */
			static inline bool USB_Host_IsBusResetComplete(void) ATTR_WARN_UNUSED_RESULT ATTR_ALWAYS_INLINE;
			static inline bool USB_Host_IsBusResetComplete(void)
			{
				return ((UHCON & (1 << RESET)) ? false : true);
     744:	80 91 9e 00 	lds	r24, 0x009E
	bool BusSuspended = USB_Host_IsBusSuspended();

	USB_INT_Disable(USB_INT_DDISCI);

	USB_Host_ResetBus();
	while (!(USB_Host_IsBusResetComplete()));
     748:	81 fd       	sbrc	r24, 1
     74a:	fc cf       	rjmp	.-8      	; 0x744 <USB_Host_ResetDevice+0x18>
			 *  host and attached device may occur.
			 */
			static inline void USB_Host_ResumeBus(void) ATTR_ALWAYS_INLINE;
			static inline void USB_Host_ResumeBus(void)
			{
				UHCON |=  (1 << SOFEN);
     74c:	80 91 9e 00 	lds	r24, 0x009E
     750:	81 60       	ori	r24, 0x01	; 1
     752:	80 93 9e 00 	sts	0x009E, r24
	USB_Host_ResumeBus();
	
	USB_Host_ConfigurationNumber = 0;
     756:	10 92 00 05 	sts	0x0500, r1
					case USB_INT_RXSTPI:
						return (UEIENX & (1 << RXSTPE));
					#endif
					#if defined(USB_CAN_BE_HOST)
					case USB_INT_HSOFI:
						return (UHIEN  & (1 << HSOFE));
     75a:	30 91 a0 00 	lds	r19, 0x00A0
						UEIENX &= ~(1 << RXSTPE);
						break;
					#endif
					#if defined(USB_CAN_BE_HOST)
					case USB_INT_HSOFI:
						UHIEN  &= ~(1 << HSOFE);
     75e:	80 91 a0 00 	lds	r24, 0x00A0
     762:	8f 7d       	andi	r24, 0xDF	; 223
     764:	80 93 a0 00 	sts	0x00A0, r24
						UEINTX &= ~(1 << RXSTPI);
						break;
					#endif
					#if defined(USB_CAN_BE_HOST)
					case USB_INT_HSOFI:
						UHINT  &= ~(1 << HSOFI);
     768:	80 91 9f 00 	lds	r24, 0x009F
     76c:	8f 7d       	andi	r24, 0xDF	; 223
     76e:	80 93 9f 00 	sts	0x009F, r24
     772:	2a e0       	ldi	r18, 0x0A	; 10
    milliseconds can be achieved.
 */
void
_delay_loop_2(uint16_t __count)
{
	__asm__ volatile (
     774:	40 ed       	ldi	r20, 0xD0	; 208
     776:	57 e0       	ldi	r21, 0x07	; 7
					case USB_INT_RXSTPI:
						return (UEINTX & (1 << RXSTPI));
					#endif
					#if defined(USB_CAN_BE_HOST)
					case USB_INT_HSOFI:
						return (UHINT  & (1 << HSOFI));
     778:	80 91 9f 00 	lds	r24, 0x009F
		/* Workaround for powerless-pull-up devices. After a USB bus reset,
		   all disconnection interrupts are suppressed while a USB frame is
		   looked for - if it is found within 10ms, the device is still
		   present.                                                        */

		if (USB_INT_HasOccurred(USB_INT_HSOFI))
     77c:	85 ff       	sbrs	r24, 5
     77e:	0b c0       	rjmp	.+22     	; 0x796 <USB_Host_ResetDevice+0x6a>
						UEINTX &= ~(1 << RXSTPI);
						break;
					#endif
					#if defined(USB_CAN_BE_HOST)
					case USB_INT_HSOFI:
						UHINT  &= ~(1 << HSOFI);
     780:	80 91 9f 00 	lds	r24, 0x009F
     784:	8f 7d       	andi	r24, 0xDF	; 223
     786:	80 93 9f 00 	sts	0x009F, r24
						break;
					case USB_INT_DCONNI:
						UHINT  &= ~(1 << DCONNI);
						break;
					case USB_INT_DDISCI:
						UHINT  &= ~(1 << DDISCI);
     78a:	80 91 9f 00 	lds	r24, 0x009F
     78e:	8d 7f       	andi	r24, 0xFD	; 253
     790:	80 93 9f 00 	sts	0x009F, r24
     794:	05 c0       	rjmp	.+10     	; 0x7a0 <USB_Host_ResetDevice+0x74>
     796:	ca 01       	movw	r24, r20
     798:	01 97       	sbiw	r24, 0x01	; 1
     79a:	f1 f7       	brne	.-4      	; 0x798 <USB_Host_ResetDevice+0x6c>
	bool HSOFIEnabled = USB_INT_IsEnabled(USB_INT_HSOFI);

	USB_INT_Disable(USB_INT_HSOFI);
	USB_INT_Clear(USB_INT_HSOFI);

	for (uint8_t MSRem = 10; MSRem != 0; MSRem--)
     79c:	21 50       	subi	r18, 0x01	; 1
     79e:	61 f7       	brne	.-40     	; 0x778 <USB_Host_ResetDevice+0x4c>
		}

		Delay_MS(1);
	}

	if (HSOFIEnabled)
     7a0:	35 ff       	sbrs	r19, 5
     7a2:	05 c0       	rjmp	.+10     	; 0x7ae <USB_Host_ResetDevice+0x82>
						UEIENX |= (1 << RXSTPE);
						break;
					#endif
					#if defined(USB_CAN_BE_HOST)
					case USB_INT_HSOFI:
						UHIEN  |= (1 << HSOFE);
     7a4:	80 91 a0 00 	lds	r24, 0x00A0
     7a8:	80 62       	ori	r24, 0x20	; 32
     7aa:	80 93 a0 00 	sts	0x00A0, r24
	  USB_INT_Enable(USB_INT_HSOFI);

	if (BusSuspended)
     7ae:	60 fd       	sbrc	r22, 0
     7b0:	05 c0       	rjmp	.+10     	; 0x7bc <USB_Host_ResetDevice+0x90>
			 *        some events (such as device disconnections) will not fire until the bus is resumed.
			 */
			static inline void USB_Host_SuspendBus(void) ATTR_ALWAYS_INLINE;
			static inline void USB_Host_SuspendBus(void)
			{
				UHCON &= ~(1 << SOFEN);
     7b2:	80 91 9e 00 	lds	r24, 0x009E
     7b6:	8e 7f       	andi	r24, 0xFE	; 254
     7b8:	80 93 9e 00 	sts	0x009E, r24
						break;
					case USB_INT_DCONNI:
						UHIEN  |= (1 << DCONNE);
						break;
					case USB_INT_DDISCI:
						UHIEN  |= (1 << DDISCE);
     7bc:	80 91 a0 00 	lds	r24, 0x00A0
     7c0:	82 60       	ori	r24, 0x02	; 2
     7c2:	80 93 a0 00 	sts	0x00A0, r24
	  USB_Host_SuspendBus();

	USB_INT_Enable(USB_INT_DDISCI);
}
     7c6:	08 95       	ret

000007c8 <USB_Host_ProcessNextHostState>:

#define  __INCLUDE_FROM_HOST_C
#include "../Host.h"

void USB_Host_ProcessNextHostState(void)
{
     7c8:	ef 92       	push	r14
     7ca:	0f 93       	push	r16
     7cc:	1f 93       	push	r17
     7ce:	df 93       	push	r29
     7d0:	cf 93       	push	r28
     7d2:	cd b7       	in	r28, 0x3d	; 61
     7d4:	de b7       	in	r29, 0x3e	; 62
     7d6:	28 97       	sbiw	r28, 0x08	; 8
     7d8:	0f b6       	in	r0, 0x3f	; 63
     7da:	f8 94       	cli
     7dc:	de bf       	out	0x3e, r29	; 62
     7de:	0f be       	out	0x3f, r0	; 63
     7e0:	cd bf       	out	0x3d, r28	; 61
	uint8_t SubErrorCode = HOST_ENUMERROR_NoError;

	static uint16_t WaitMSRemaining;
	static uint8_t  PostWaitState;

	switch (USB_HostState)
     7e2:	80 91 0a 05 	lds	r24, 0x050A
     7e6:	85 30       	cpi	r24, 0x05	; 5
     7e8:	09 f4       	brne	.+2      	; 0x7ec <USB_Host_ProcessNextHostState+0x24>
     7ea:	94 c0       	rjmp	.+296    	; 0x914 <USB_Host_ProcessNextHostState+0x14c>
     7ec:	86 30       	cpi	r24, 0x06	; 6
     7ee:	68 f4       	brcc	.+26     	; 0x80a <USB_Host_ProcessNextHostState+0x42>
     7f0:	82 30       	cpi	r24, 0x02	; 2
     7f2:	b9 f1       	breq	.+110    	; 0x862 <USB_Host_ProcessNextHostState+0x9a>
     7f4:	83 30       	cpi	r24, 0x03	; 3
     7f6:	18 f4       	brcc	.+6      	; 0x7fe <USB_Host_ProcessNextHostState+0x36>
     7f8:	88 23       	and	r24, r24
     7fa:	a1 f0       	breq	.+40     	; 0x824 <USB_Host_ProcessNextHostState+0x5c>
     7fc:	04 c1       	rjmp	.+520    	; 0xa06 <USB_Host_ProcessNextHostState+0x23e>
     7fe:	83 30       	cpi	r24, 0x03	; 3
     800:	d1 f1       	breq	.+116    	; 0x876 <USB_Host_ProcessNextHostState+0xae>
     802:	84 30       	cpi	r24, 0x04	; 4
     804:	09 f0       	breq	.+2      	; 0x808 <USB_Host_ProcessNextHostState+0x40>
     806:	ff c0       	rjmp	.+510    	; 0xa06 <USB_Host_ProcessNextHostState+0x23e>
     808:	5d c0       	rjmp	.+186    	; 0x8c4 <USB_Host_ProcessNextHostState+0xfc>
     80a:	87 30       	cpi	r24, 0x07	; 7
     80c:	09 f4       	brne	.+2      	; 0x810 <USB_Host_ProcessNextHostState+0x48>
     80e:	9b c0       	rjmp	.+310    	; 0x946 <USB_Host_ProcessNextHostState+0x17e>
     810:	87 30       	cpi	r24, 0x07	; 7
     812:	08 f4       	brcc	.+2      	; 0x816 <USB_Host_ProcessNextHostState+0x4e>
     814:	8a c0       	rjmp	.+276    	; 0x92a <USB_Host_ProcessNextHostState+0x162>
     816:	88 30       	cpi	r24, 0x08	; 8
     818:	09 f4       	brne	.+2      	; 0x81c <USB_Host_ProcessNextHostState+0x54>
     81a:	b3 c0       	rjmp	.+358    	; 0x982 <USB_Host_ProcessNextHostState+0x1ba>
     81c:	89 30       	cpi	r24, 0x09	; 9
     81e:	09 f0       	breq	.+2      	; 0x822 <USB_Host_ProcessNextHostState+0x5a>
     820:	f2 c0       	rjmp	.+484    	; 0xa06 <USB_Host_ProcessNextHostState+0x23e>
     822:	d7 c0       	rjmp	.+430    	; 0x9d2 <USB_Host_ProcessNextHostState+0x20a>
	{
		case HOST_STATE_WaitForDevice:
			if (WaitMSRemaining)
     824:	00 91 fe 04 	lds	r16, 0x04FE
     828:	10 91 ff 04 	lds	r17, 0x04FF
     82c:	01 15       	cp	r16, r1
     82e:	11 05       	cpc	r17, r1
     830:	09 f4       	brne	.+2      	; 0x834 <USB_Host_ProcessNextHostState+0x6c>
     832:	e9 c0       	rjmp	.+466    	; 0xa06 <USB_Host_ProcessNextHostState+0x23e>
			{
				if ((SubErrorCode = USB_Host_WaitMS(1)) != HOST_WAITERROR_Successful)
     834:	81 e0       	ldi	r24, 0x01	; 1
     836:	2b df       	rcall	.-426    	; 0x68e <USB_Host_WaitMS>
     838:	68 2f       	mov	r22, r24
     83a:	88 23       	and	r24, r24
     83c:	31 f0       	breq	.+12     	; 0x84a <USB_Host_ProcessNextHostState+0x82>
				{
					USB_HostState = PostWaitState;
     83e:	80 91 fd 04 	lds	r24, 0x04FD
     842:	80 93 0a 05 	sts	0x050A, r24
     846:	91 e0       	ldi	r25, 0x01	; 1
     848:	da c0       	rjmp	.+436    	; 0x9fe <USB_Host_ProcessNextHostState+0x236>
					ErrorCode     = HOST_ENUMERROR_WaitStage;
					break;
				}

				if (!(--WaitMSRemaining))
     84a:	c8 01       	movw	r24, r16
     84c:	01 97       	sbiw	r24, 0x01	; 1
     84e:	90 93 ff 04 	sts	0x04FF, r25
     852:	80 93 fe 04 	sts	0x04FE, r24
     856:	89 2b       	or	r24, r25
     858:	09 f0       	breq	.+2      	; 0x85c <USB_Host_ProcessNextHostState+0x94>
     85a:	d5 c0       	rjmp	.+426    	; 0xa06 <USB_Host_ProcessNextHostState+0x23e>
				  USB_HostState = PostWaitState;
     85c:	80 91 fd 04 	lds	r24, 0x04FD
     860:	07 c0       	rjmp	.+14     	; 0x870 <USB_Host_ProcessNextHostState+0xa8>
			}

			break;
		case HOST_STATE_Powered:
			WaitMSRemaining = HOST_DEVICE_SETTLE_DELAY_MS;
     862:	88 ee       	ldi	r24, 0xE8	; 232
     864:	93 e0       	ldi	r25, 0x03	; 3
     866:	90 93 ff 04 	sts	0x04FF, r25
     86a:	80 93 fe 04 	sts	0x04FE, r24

			USB_HostState = HOST_STATE_Powered_WaitForDeviceSettle;
     86e:	83 e0       	ldi	r24, 0x03	; 3
     870:	80 93 0a 05 	sts	0x050A, r24
     874:	c8 c0       	rjmp	.+400    	; 0xa06 <USB_Host_ProcessNextHostState+0x23e>
			break;
		case HOST_STATE_Powered_WaitForDeviceSettle:
			if (WaitMSRemaining--)
     876:	80 91 fe 04 	lds	r24, 0x04FE
     87a:	90 91 ff 04 	lds	r25, 0x04FF
     87e:	01 97       	sbiw	r24, 0x01	; 1
     880:	90 93 ff 04 	sts	0x04FF, r25
     884:	80 93 fe 04 	sts	0x04FE, r24
     888:	01 96       	adiw	r24, 0x01	; 1
     88a:	29 f0       	breq	.+10     	; 0x896 <USB_Host_ProcessNextHostState+0xce>
     88c:	80 ed       	ldi	r24, 0xD0	; 208
     88e:	97 e0       	ldi	r25, 0x07	; 7
     890:	01 97       	sbiw	r24, 0x01	; 1
     892:	f1 f7       	brne	.-4      	; 0x890 <USB_Host_ProcessNextHostState+0xc8>
     894:	b8 c0       	rjmp	.+368    	; 0xa06 <USB_Host_ProcessNextHostState+0x23e>
			}

			static inline void USB_Host_VBUS_Manual_Off(void) ATTR_ALWAYS_INLINE;
			static inline void USB_Host_VBUS_Manual_Off(void)
			{
				PORTE  &= ~(1 << 7);
     896:	77 98       	cbi	0x0e, 7	; 14

			#if defined(USB_SERIES_4_AVR) || defined(USB_SERIES_6_AVR) || defined(USB_SERIES_7_AVR)
			static inline void USB_OTGPAD_On(void) ATTR_ALWAYS_INLINE;
			static inline void USB_OTGPAD_On(void)
			{
				USBCON  |=  (1 << OTGPADE);
     898:	80 91 d8 00 	lds	r24, 0x00D8
     89c:	80 61       	ori	r24, 0x10	; 16
     89e:	80 93 d8 00 	sts	0x00D8, r24
			}

			static inline void USB_Host_VBUS_Auto_Enable(void) ATTR_ALWAYS_INLINE;
			static inline void USB_Host_VBUS_Auto_Enable(void)
			{
				OTGCON &= ~(1 << VBUSHWC);
     8a2:	80 91 dd 00 	lds	r24, 0x00DD
     8a6:	8b 7f       	andi	r24, 0xFB	; 251
     8a8:	80 93 dd 00 	sts	0x00DD, r24
				UHWCON |=  (1 << UVCONE);
     8ac:	80 91 d7 00 	lds	r24, 0x00D7
     8b0:	80 61       	ori	r24, 0x10	; 16
     8b2:	80 93 d7 00 	sts	0x00D7, r24
			}

			static inline void USB_Host_VBUS_Auto_On(void) ATTR_ALWAYS_INLINE;
			static inline void USB_Host_VBUS_Auto_On(void)
			{
				OTGCON |=  (1 << VBUSREQ);
     8b6:	80 91 dd 00 	lds	r24, 0x00DD
     8ba:	82 60       	ori	r24, 0x02	; 2
     8bc:	80 93 dd 00 	sts	0x00DD, r24

				USB_OTGPAD_On();
				USB_Host_VBUS_Auto_Enable();
				USB_Host_VBUS_Auto_On();

				USB_HostState = HOST_STATE_Powered_WaitForConnect;
     8c0:	84 e0       	ldi	r24, 0x04	; 4
     8c2:	d6 cf       	rjmp	.-84     	; 0x870 <USB_Host_ProcessNextHostState+0xa8>
					#endif
					#if defined(USB_CAN_BE_HOST)
					case USB_INT_HSOFI:
						return (UHINT  & (1 << HSOFI));
					case USB_INT_DCONNI:
						return (UHINT  & (1 << DCONNI));
     8c4:	80 91 9f 00 	lds	r24, 0x009F
			}

			break;
		case HOST_STATE_Powered_WaitForConnect:
			if (USB_INT_HasOccurred(USB_INT_DCONNI))
     8c8:	80 ff       	sbrs	r24, 0
     8ca:	9d c0       	rjmp	.+314    	; 0xa06 <USB_Host_ProcessNextHostState+0x23e>
					#if defined(USB_CAN_BE_HOST)
					case USB_INT_HSOFI:
						UHINT  &= ~(1 << HSOFI);
						break;
					case USB_INT_DCONNI:
						UHINT  &= ~(1 << DCONNI);
     8cc:	80 91 9f 00 	lds	r24, 0x009F
     8d0:	8e 7f       	andi	r24, 0xFE	; 254
     8d2:	80 93 9f 00 	sts	0x009F, r24
						break;
					case USB_INT_DDISCI:
						UHINT  &= ~(1 << DDISCI);
     8d6:	80 91 9f 00 	lds	r24, 0x009F
     8da:	8d 7f       	andi	r24, 0xFD	; 253
     8dc:	80 93 9f 00 	sts	0x009F, r24
						break;
					case USB_INT_BCERRI:
						OTGINT &= ~(1 << BCERRI);
						break;
					case USB_INT_VBERRI:
						OTGINT &= ~(1 << VBERRI);
     8e0:	80 91 df 00 	lds	r24, 0x00DF
     8e4:	8d 7f       	andi	r24, 0xFD	; 253
     8e6:	80 93 df 00 	sts	0x00DF, r24
						break;
					case USB_INT_BCERRI:
						OTGIEN |= (1 << BCERRE);
						break;
					case USB_INT_VBERRI:
						OTGIEN |= (1 << VBERRE);
     8ea:	80 91 de 00 	lds	r24, 0x00DE
     8ee:	82 60       	ori	r24, 0x02	; 2
     8f0:	80 93 de 00 	sts	0x00DE, r24
			 *  host and attached device may occur.
			 */
			static inline void USB_Host_ResumeBus(void) ATTR_ALWAYS_INLINE;
			static inline void USB_Host_ResumeBus(void)
			{
				UHCON |=  (1 << SOFEN);
     8f4:	80 91 9e 00 	lds	r24, 0x009E
     8f8:	81 60       	ori	r24, 0x01	; 1
     8fa:	80 93 9e 00 	sts	0x009E, r24

				USB_INT_Clear(USB_INT_VBERRI);
				USB_INT_Enable(USB_INT_VBERRI);

				USB_Host_ResumeBus();
				Pipe_ClearPipes();
     8fe:	ed d0       	rcall	.+474    	; 0xada <Pipe_ClearPipes>

				HOST_TASK_NONBLOCK_WAIT(100, HOST_STATE_Powered_DoReset);
     900:	10 92 0a 05 	sts	0x050A, r1
     904:	84 e6       	ldi	r24, 0x64	; 100
     906:	90 e0       	ldi	r25, 0x00	; 0
     908:	90 93 ff 04 	sts	0x04FF, r25
     90c:	80 93 fe 04 	sts	0x04FE, r24
     910:	85 e0       	ldi	r24, 0x05	; 5
     912:	5c c0       	rjmp	.+184    	; 0x9cc <USB_Host_ProcessNextHostState+0x204>
			}

			break;
		case HOST_STATE_Powered_DoReset:
			USB_Host_ResetDevice();
     914:	0b df       	rcall	.-490    	; 0x72c <USB_Host_ResetDevice>

			HOST_TASK_NONBLOCK_WAIT(200, HOST_STATE_Powered_ConfigPipe);
     916:	10 92 0a 05 	sts	0x050A, r1
     91a:	88 ec       	ldi	r24, 0xC8	; 200
     91c:	90 e0       	ldi	r25, 0x00	; 0
     91e:	90 93 ff 04 	sts	0x04FF, r25
     922:	80 93 fe 04 	sts	0x04FE, r24
     926:	86 e0       	ldi	r24, 0x06	; 6
     928:	51 c0       	rjmp	.+162    	; 0x9cc <USB_Host_ProcessNextHostState+0x204>
			break;
		case HOST_STATE_Powered_ConfigPipe:
			Pipe_ConfigurePipe(PIPE_CONTROLPIPE, EP_TYPE_CONTROL,
     92a:	80 e0       	ldi	r24, 0x00	; 0
     92c:	60 e0       	ldi	r22, 0x00	; 0
     92e:	40 e0       	ldi	r20, 0x00	; 0
     930:	20 e0       	ldi	r18, 0x00	; 0
     932:	00 e4       	ldi	r16, 0x40	; 64
     934:	10 e0       	ldi	r17, 0x00	; 0
     936:	ee 24       	eor	r14, r14
     938:	72 d0       	rcall	.+228    	; 0xa1e <Pipe_ConfigurePipe>
			 *  \return Boolean \c true if the selected pipe is configured, \c false otherwise.
			 */
			static inline bool Pipe_IsConfigured(void) ATTR_WARN_UNUSED_RESULT ATTR_ALWAYS_INLINE;
			static inline bool Pipe_IsConfigured(void)
			{
				return ((UPSTAX & (1 << CFGOK)) ? true : false);
     93a:	80 91 ac 00 	lds	r24, 0x00AC
							   PIPE_TOKEN_SETUP, ENDPOINT_CONTROLEP,
							   PIPE_CONTROLPIPE_DEFAULT_SIZE, PIPE_BANK_SINGLE);

			if (!(Pipe_IsConfigured()))
     93e:	87 ff       	sbrs	r24, 7
     940:	5c c0       	rjmp	.+184    	; 0x9fa <USB_Host_ProcessNextHostState+0x232>
				ErrorCode    = HOST_ENUMERROR_PipeConfigError;
				SubErrorCode = 0;
				break;
			}

			USB_HostState = HOST_STATE_Default;
     942:	87 e0       	ldi	r24, 0x07	; 7
     944:	95 cf       	rjmp	.-214    	; 0x870 <USB_Host_ProcessNextHostState+0xa8>
			break;
		case HOST_STATE_Default:
			USB_ControlRequest = (USB_Request_Header_t)
     946:	a2 e0       	ldi	r26, 0x02	; 2
     948:	b5 e0       	ldi	r27, 0x05	; 5
     94a:	eb e1       	ldi	r30, 0x1B	; 27
     94c:	f1 e0       	ldi	r31, 0x01	; 1
     94e:	88 e0       	ldi	r24, 0x08	; 8
     950:	01 90       	ld	r0, Z+
     952:	0d 92       	st	X+, r0
     954:	81 50       	subi	r24, 0x01	; 1
     956:	e1 f7       	brne	.-8      	; 0x950 <USB_Host_ProcessNextHostState+0x188>
					.wLength       = 8,
				};

			uint8_t DataBuffer[8];

			if ((SubErrorCode = USB_Host_SendControlRequest(DataBuffer)) != HOST_SENDCONTROL_Successful)
     958:	ce 01       	movw	r24, r28
     95a:	01 96       	adiw	r24, 0x01	; 1
     95c:	53 d3       	rcall	.+1702   	; 0x1004 <USB_Host_SendControlRequest>
     95e:	68 2f       	mov	r22, r24
     960:	88 23       	and	r24, r24
     962:	09 f0       	breq	.+2      	; 0x966 <USB_Host_ProcessNextHostState+0x19e>
     964:	48 c0       	rjmp	.+144    	; 0x9f6 <USB_Host_ProcessNextHostState+0x22e>
			{
				ErrorCode = HOST_ENUMERROR_ControlError;
				break;
			}

			USB_Host_ControlPipeSize = DataBuffer[offsetof(USB_Descriptor_Device_t, Endpoint0Size)];
     966:	88 85       	ldd	r24, Y+8	; 0x08
     968:	80 93 23 01 	sts	0x0123, r24

			USB_Host_ResetDevice();
     96c:	df de       	rcall	.-578    	; 0x72c <USB_Host_ResetDevice>

			HOST_TASK_NONBLOCK_WAIT(200, HOST_STATE_Default_PostReset);
     96e:	10 92 0a 05 	sts	0x050A, r1
     972:	88 ec       	ldi	r24, 0xC8	; 200
     974:	90 e0       	ldi	r25, 0x00	; 0
     976:	90 93 ff 04 	sts	0x04FF, r25
     97a:	80 93 fe 04 	sts	0x04FE, r24
     97e:	88 e0       	ldi	r24, 0x08	; 8
     980:	25 c0       	rjmp	.+74     	; 0x9cc <USB_Host_ProcessNextHostState+0x204>
			break;
		case HOST_STATE_Default_PostReset:
			Pipe_ConfigurePipe(PIPE_CONTROLPIPE, EP_TYPE_CONTROL,
     982:	00 91 23 01 	lds	r16, 0x0123
     986:	80 e0       	ldi	r24, 0x00	; 0
     988:	60 e0       	ldi	r22, 0x00	; 0
     98a:	40 e0       	ldi	r20, 0x00	; 0
     98c:	20 e0       	ldi	r18, 0x00	; 0
     98e:	10 e0       	ldi	r17, 0x00	; 0
     990:	ee 24       	eor	r14, r14
     992:	45 d0       	rcall	.+138    	; 0xa1e <Pipe_ConfigurePipe>
     994:	80 91 ac 00 	lds	r24, 0x00AC
			                   PIPE_TOKEN_SETUP, ENDPOINT_CONTROLEP,
			                   USB_Host_ControlPipeSize, PIPE_BANK_SINGLE);

			if (!(Pipe_IsConfigured()))
     998:	87 ff       	sbrs	r24, 7
     99a:	2f c0       	rjmp	.+94     	; 0x9fa <USB_Host_ProcessNextHostState+0x232>
				ErrorCode    = HOST_ENUMERROR_PipeConfigError;
				SubErrorCode = 0;
				break;
			}

			USB_ControlRequest = (USB_Request_Header_t)
     99c:	a2 e0       	ldi	r26, 0x02	; 2
     99e:	b5 e0       	ldi	r27, 0x05	; 5
     9a0:	e3 e1       	ldi	r30, 0x13	; 19
     9a2:	f1 e0       	ldi	r31, 0x01	; 1
     9a4:	88 e0       	ldi	r24, 0x08	; 8
     9a6:	01 90       	ld	r0, Z+
     9a8:	0d 92       	st	X+, r0
     9aa:	81 50       	subi	r24, 0x01	; 1
     9ac:	e1 f7       	brne	.-8      	; 0x9a6 <USB_Host_ProcessNextHostState+0x1de>
					.wValue        = USB_HOST_DEVICEADDRESS,
					.wIndex        = 0,
					.wLength       = 0,
				};

			if ((SubErrorCode = USB_Host_SendControlRequest(NULL)) != HOST_SENDCONTROL_Successful)
     9ae:	80 e0       	ldi	r24, 0x00	; 0
     9b0:	90 e0       	ldi	r25, 0x00	; 0
     9b2:	28 d3       	rcall	.+1616   	; 0x1004 <USB_Host_SendControlRequest>
     9b4:	68 2f       	mov	r22, r24
     9b6:	88 23       	and	r24, r24
     9b8:	f1 f4       	brne	.+60     	; 0x9f6 <USB_Host_ProcessNextHostState+0x22e>
			{
				ErrorCode = HOST_ENUMERROR_ControlError;
				break;
			}

			HOST_TASK_NONBLOCK_WAIT(100, HOST_STATE_Default_PostAddressSet);
     9ba:	10 92 0a 05 	sts	0x050A, r1
     9be:	84 e6       	ldi	r24, 0x64	; 100
     9c0:	90 e0       	ldi	r25, 0x00	; 0
     9c2:	90 93 ff 04 	sts	0x04FF, r25
     9c6:	80 93 fe 04 	sts	0x04FE, r24
     9ca:	89 e0       	ldi	r24, 0x09	; 9
     9cc:	80 93 fd 04 	sts	0x04FD, r24
     9d0:	1a c0       	rjmp	.+52     	; 0xa06 <USB_Host_ProcessNextHostState+0x23e>
			}

			static inline void USB_Host_SetDeviceAddress(const uint8_t Address) ATTR_ALWAYS_INLINE;
			static inline void USB_Host_SetDeviceAddress(const uint8_t Address)
			{
				UHADDR  =  (Address & 0x7F);
     9d2:	81 e0       	ldi	r24, 0x01	; 1
     9d4:	80 93 a1 00 	sts	0x00A1, r24
			break;
		case HOST_STATE_Default_PostAddressSet:
			USB_Host_SetDeviceAddress(USB_HOST_DEVICEADDRESS);

			USB_HostState = HOST_STATE_Addressed;
     9d8:	8a e0       	ldi	r24, 0x0A	; 10
     9da:	80 93 0a 05 	sts	0x050A, r24

			EVENT_USB_Host_DeviceEnumerationComplete();
     9de:	c8 dc       	rcall	.-1648   	; 0x370 <EVENT_USB_Host_DeviceEnumerationComplete>
     9e0:	12 c0       	rjmp	.+36     	; 0xa06 <USB_Host_ProcessNextHostState+0x23e>
			break;
	}

	if ((ErrorCode != HOST_ENUMERROR_NoError) && (USB_HostState != HOST_STATE_Unattached))
	{
		EVENT_USB_Host_DeviceEnumerationFailed(ErrorCode, SubErrorCode);
     9e2:	89 2f       	mov	r24, r25
     9e4:	6a dc       	rcall	.-1836   	; 0x2ba <EVENT_USB_Host_DeviceEnumerationFailed>
			}

			static inline void USB_Host_VBUS_Auto_Off(void) ATTR_ALWAYS_INLINE;
			static inline void USB_Host_VBUS_Auto_Off(void)
			{
				OTGCON |=  (1 << VBUSRQC);
     9e6:	80 91 dd 00 	lds	r24, 0x00DD
     9ea:	81 60       	ori	r24, 0x01	; 1
     9ec:	80 93 dd 00 	sts	0x00DD, r24

		USB_Host_VBUS_Auto_Off();

		EVENT_USB_Host_DeviceUnattached();
     9f0:	ad dc       	rcall	.-1702   	; 0x34c <EVENT_USB_Host_DeviceUnattached>

		USB_ResetInterface();
     9f2:	d8 d0       	rcall	.+432    	; 0xba4 <USB_ResetInterface>
     9f4:	08 c0       	rjmp	.+16     	; 0xa06 <USB_Host_ProcessNextHostState+0x23e>
	}
}
     9f6:	93 e0       	ldi	r25, 0x03	; 3
     9f8:	02 c0       	rjmp	.+4      	; 0x9fe <USB_Host_ProcessNextHostState+0x236>
     9fa:	94 e0       	ldi	r25, 0x04	; 4
     9fc:	60 e0       	ldi	r22, 0x00	; 0

			EVENT_USB_Host_DeviceEnumerationComplete();
			break;
	}

	if ((ErrorCode != HOST_ENUMERROR_NoError) && (USB_HostState != HOST_STATE_Unattached))
     9fe:	80 91 0a 05 	lds	r24, 0x050A
     a02:	81 30       	cpi	r24, 0x01	; 1
     a04:	71 f7       	brne	.-36     	; 0x9e2 <USB_Host_ProcessNextHostState+0x21a>

		EVENT_USB_Host_DeviceUnattached();

		USB_ResetInterface();
	}
}
     a06:	28 96       	adiw	r28, 0x08	; 8
     a08:	0f b6       	in	r0, 0x3f	; 63
     a0a:	f8 94       	cli
     a0c:	de bf       	out	0x3e, r29	; 62
     a0e:	0f be       	out	0x3f, r0	; 63
     a10:	cd bf       	out	0x3d, r28	; 61
     a12:	cf 91       	pop	r28
     a14:	df 91       	pop	r29
     a16:	1f 91       	pop	r17
     a18:	0f 91       	pop	r16
     a1a:	ef 90       	pop	r14
     a1c:	08 95       	ret

00000a1e <Pipe_ConfigurePipe>:
                        const uint8_t Type,
                        const uint8_t Token,
                        const uint8_t EndpointNumber,
                        const uint16_t Size,
                        const uint8_t Banks)
{
     a1e:	ef 92       	push	r14
     a20:	0f 93       	push	r16
     a22:	1f 93       	push	r17
     a24:	e8 2f       	mov	r30, r24
     a26:	7e 2d       	mov	r23, r14

		Pipe_SelectPipe(PNum);
		
		if (PNum == Number)
		{
			UPCFG0XTemp = ((Type << EPTYPE0) | Token | ((EndpointNumber & PIPE_EPNUM_MASK) << PEPNUM0));
     a28:	62 95       	swap	r22
     a2a:	66 0f       	add	r22, r22
     a2c:	66 0f       	add	r22, r22
     a2e:	60 7c       	andi	r22, 0xC0	; 192
     a30:	64 2b       	or	r22, r20
     a32:	2f 70       	andi	r18, 0x0F	; 15
     a34:	62 2b       	or	r22, r18
     a36:	38 2f       	mov	r19, r24
			UPCFG1XTemp = ((1 << ALLOC) | Banks | Pipe_BytesToEPSizeMask(Size));
     a38:	72 60       	ori	r23, 0x02	; 2
     a3a:	45 c0       	rjmp	.+138    	; 0xac6 <Pipe_ConfigurePipe+0xa8>
			 *  \param[in] PipeNumber  Index of the pipe to select.
			 */
			static inline void Pipe_SelectPipe(const uint8_t PipeNumber) ATTR_ALWAYS_INLINE;
			static inline void Pipe_SelectPipe(const uint8_t PipeNumber)
			{
				UPNUM = PipeNumber;
     a3c:	30 93 a7 00 	sts	0x00A7, r19
		uint8_t UPCFG2XTemp;
		uint8_t UPIENXTemp;

		Pipe_SelectPipe(PNum);
		
		if (PNum == Number)
     a40:	3e 17       	cp	r19, r30
     a42:	a1 f4       	brne	.+40     	; 0xa6c <Pipe_ConfigurePipe+0x4e>
     a44:	88 e0       	ldi	r24, 0x08	; 8
     a46:	90 e0       	ldi	r25, 0x00	; 0
     a48:	20 e0       	ldi	r18, 0x00	; 0
     a4a:	03 c0       	rjmp	.+6      	; 0xa52 <Pipe_ConfigurePipe+0x34>
				uint8_t  MaskVal    = 0;
				uint16_t CheckBytes = 8;

				while ((CheckBytes < Bytes) && (CheckBytes < PIPE_MAX_SIZE))
				{
					MaskVal++;
     a4c:	2f 5f       	subi	r18, 0xFF	; 255
					CheckBytes <<= 1;
     a4e:	88 0f       	add	r24, r24
     a50:	99 1f       	adc	r25, r25
			static inline uint8_t Pipe_BytesToEPSizeMask(const uint16_t Bytes)
			{
				uint8_t  MaskVal    = 0;
				uint16_t CheckBytes = 8;

				while ((CheckBytes < Bytes) && (CheckBytes < PIPE_MAX_SIZE))
     a52:	80 17       	cp	r24, r16
     a54:	91 07       	cpc	r25, r17
     a56:	10 f4       	brcc	.+4      	; 0xa5c <Pipe_ConfigurePipe+0x3e>
     a58:	25 30       	cpi	r18, 0x05	; 5
     a5a:	c1 f7       	brne	.-16     	; 0xa4c <Pipe_ConfigurePipe+0x2e>
		{
			UPCFG0XTemp = ((Type << EPTYPE0) | Token | ((EndpointNumber & PIPE_EPNUM_MASK) << PEPNUM0));
			UPCFG1XTemp = ((1 << ALLOC) | Banks | Pipe_BytesToEPSizeMask(Size));
     a5c:	92 2f       	mov	r25, r18
     a5e:	92 95       	swap	r25
     a60:	90 7f       	andi	r25, 0xF0	; 240
     a62:	97 2b       	or	r25, r23
     a64:	56 2f       	mov	r21, r22
     a66:	40 e0       	ldi	r20, 0x00	; 0
     a68:	20 e0       	ldi	r18, 0x00	; 0
     a6a:	08 c0       	rjmp	.+16     	; 0xa7c <Pipe_ConfigurePipe+0x5e>
			UPCFG2XTemp = 0;
			UPIENXTemp  = 0;
		}
		else
		{
			UPCFG0XTemp = UPCFG0X;
     a6c:	50 91 aa 00 	lds	r21, 0x00AA
			UPCFG1XTemp = UPCFG1X;
     a70:	90 91 ab 00 	lds	r25, 0x00AB
			UPCFG2XTemp = UPCFG2X;
     a74:	40 91 ad 00 	lds	r20, 0x00AD
			UPIENXTemp  = UPIENX;
     a78:	20 91 ae 00 	lds	r18, 0x00AE
		}

		if (!(UPCFG1XTemp & (1 << ALLOC)))
     a7c:	91 ff       	sbrs	r25, 1
     a7e:	22 c0       	rjmp	.+68     	; 0xac4 <Pipe_ConfigurePipe+0xa6>
			 *  from an attached device.
			 */
			static inline void Pipe_DisablePipe(void) ATTR_ALWAYS_INLINE;
			static inline void Pipe_DisablePipe(void)
			{
				UPCONX &= ~(1 << PEN);
     a80:	80 91 a9 00 	lds	r24, 0x00A9
     a84:	8e 7f       	andi	r24, 0xFE	; 254
     a86:	80 93 a9 00 	sts	0x00A9, r24
		  continue;
		  
		Pipe_DisablePipe();
		UPCFG1X &= ~(1 << ALLOC);
     a8a:	80 91 ab 00 	lds	r24, 0x00AB
     a8e:	8d 7f       	andi	r24, 0xFD	; 253
     a90:	80 93 ab 00 	sts	0x00AB, r24
			 *  \pre The currently selected pipe must first be configured properly via \ref Pipe_ConfigurePipe().
			 */
			static inline void Pipe_EnablePipe(void) ATTR_ALWAYS_INLINE;
			static inline void Pipe_EnablePipe(void)
			{
				UPCONX |= (1 << PEN);
     a94:	80 91 a9 00 	lds	r24, 0x00A9
     a98:	81 60       	ori	r24, 0x01	; 1
     a9a:	80 93 a9 00 	sts	0x00A9, r24

		Pipe_EnablePipe();
		UPCFG0X = UPCFG0XTemp;
     a9e:	50 93 aa 00 	sts	0x00AA, r21
		UPCFG1X = UPCFG1XTemp;
     aa2:	90 93 ab 00 	sts	0x00AB, r25
		UPCFG2X = UPCFG2XTemp;
     aa6:	40 93 ad 00 	sts	0x00AD, r20
		UPIENX  = UPIENXTemp;
     aaa:	20 93 ae 00 	sts	0x00AE, r18

			/** Configures the currently selected pipe to allow for an unlimited number of IN requests. */
			static inline void Pipe_SetInfiniteINRequests(void) ATTR_ALWAYS_INLINE;
			static inline void Pipe_SetInfiniteINRequests(void)
			{
				UPCONX |= (1 << INMODE);
     aae:	80 91 a9 00 	lds	r24, 0x00A9
     ab2:	80 62       	ori	r24, 0x20	; 32
     ab4:	80 93 a9 00 	sts	0x00A9, r24
			 *  \return Boolean \c true if the selected pipe is configured, \c false otherwise.
			 */
			static inline bool Pipe_IsConfigured(void) ATTR_WARN_UNUSED_RESULT ATTR_ALWAYS_INLINE;
			static inline bool Pipe_IsConfigured(void)
			{
				return ((UPSTAX & (1 << CFGOK)) ? true : false);
     ab8:	80 91 ac 00 	lds	r24, 0x00AC

		Pipe_SetInfiniteINRequests();
	
		if (!(Pipe_IsConfigured()))
     abc:	87 fd       	sbrc	r24, 7
     abe:	02 c0       	rjmp	.+4      	; 0xac4 <Pipe_ConfigurePipe+0xa6>
     ac0:	80 e0       	ldi	r24, 0x00	; 0
     ac2:	07 c0       	rjmp	.+14     	; 0xad2 <Pipe_ConfigurePipe+0xb4>

	Pipe_SetInfiniteINRequests();

	return Pipe_IsConfigured();
#else	
	for (uint8_t PNum = Number; PNum < PIPE_TOTAL_PIPES; PNum++)
     ac4:	3f 5f       	subi	r19, 0xFF	; 255
     ac6:	37 30       	cpi	r19, 0x07	; 7
     ac8:	08 f4       	brcc	.+2      	; 0xacc <Pipe_ConfigurePipe+0xae>
     aca:	b8 cf       	rjmp	.-144    	; 0xa3c <Pipe_ConfigurePipe+0x1e>
			 *  \param[in] PipeNumber  Index of the pipe to select.
			 */
			static inline void Pipe_SelectPipe(const uint8_t PipeNumber) ATTR_ALWAYS_INLINE;
			static inline void Pipe_SelectPipe(const uint8_t PipeNumber)
			{
				UPNUM = PipeNumber;
     acc:	e0 93 a7 00 	sts	0x00A7, r30
     ad0:	81 e0       	ldi	r24, 0x01	; 1
	}
		
	Pipe_SelectPipe(Number);	
	return true;
#endif
}
     ad2:	1f 91       	pop	r17
     ad4:	0f 91       	pop	r16
     ad6:	ef 90       	pop	r14
     ad8:	08 95       	ret

00000ada <Pipe_ClearPipes>:

void Pipe_ClearPipes(void)
{
	UPINT = 0;
     ada:	10 92 f8 00 	sts	0x00F8, r1
     ade:	90 e0       	ldi	r25, 0x00	; 0
     ae0:	90 93 a7 00 	sts	0x00A7, r25

	for (uint8_t PNum = 0; PNum < PIPE_TOTAL_PIPES; PNum++)
	{
		Pipe_SelectPipe(PNum);
		UPIENX  = 0;
     ae4:	10 92 ae 00 	sts	0x00AE, r1
		UPINTX  = 0;
     ae8:	10 92 a6 00 	sts	0x00A6, r1
		UPCFG1X = 0;
     aec:	10 92 ab 00 	sts	0x00AB, r1
			 *  from an attached device.
			 */
			static inline void Pipe_DisablePipe(void) ATTR_ALWAYS_INLINE;
			static inline void Pipe_DisablePipe(void)
			{
				UPCONX &= ~(1 << PEN);
     af0:	80 91 a9 00 	lds	r24, 0x00A9
     af4:	8e 7f       	andi	r24, 0xFE	; 254
     af6:	80 93 a9 00 	sts	0x00A9, r24

void Pipe_ClearPipes(void)
{
	UPINT = 0;

	for (uint8_t PNum = 0; PNum < PIPE_TOTAL_PIPES; PNum++)
     afa:	9f 5f       	subi	r25, 0xFF	; 255
     afc:	97 30       	cpi	r25, 0x07	; 7
     afe:	81 f7       	brne	.-32     	; 0xae0 <Pipe_ClearPipes+0x6>
		UPIENX  = 0;
		UPINTX  = 0;
		UPCFG1X = 0;
		Pipe_DisablePipe();
	}
}
     b00:	08 95       	ret

00000b02 <Pipe_IsEndpointBound>:

bool Pipe_IsEndpointBound(const uint8_t EndpointAddress)
{
     b02:	48 2f       	mov	r20, r24
			 *  \return Index of the currently selected pipe.
			 */
			static inline uint8_t Pipe_GetCurrentPipe(void) ATTR_WARN_UNUSED_RESULT ATTR_ALWAYS_INLINE;
			static inline uint8_t Pipe_GetCurrentPipe(void)
			{
				return (UPNUM & PIPE_PIPENUM_MASK);
     b04:	30 91 a7 00 	lds	r19, 0x00A7
     b08:	20 e0       	ldi	r18, 0x00	; 0
			 *  \param[in] PipeNumber  Index of the pipe to select.
			 */
			static inline void Pipe_SelectPipe(const uint8_t PipeNumber) ATTR_ALWAYS_INLINE;
			static inline void Pipe_SelectPipe(const uint8_t PipeNumber)
			{
				UPNUM = PipeNumber;
     b0a:	20 93 a7 00 	sts	0x00A7, r18
			 *  \return Boolean \c true if the selected pipe is configured, \c false otherwise.
			 */
			static inline bool Pipe_IsConfigured(void) ATTR_WARN_UNUSED_RESULT ATTR_ALWAYS_INLINE;
			static inline bool Pipe_IsConfigured(void)
			{
				return ((UPSTAX & (1 << CFGOK)) ? true : false);
     b0e:	80 91 ac 00 	lds	r24, 0x00AC

	for (uint8_t PNum = 0; PNum < PIPE_TOTAL_PIPES; PNum++)
	{
		Pipe_SelectPipe(PNum);

		if (!(Pipe_IsConfigured()))
     b12:	87 ff       	sbrs	r24, 7
     b14:	10 c0       	rjmp	.+32     	; 0xb36 <Pipe_IsEndpointBound+0x34>
			 *  \return Endpoint address the currently selected pipe is bound to.
			 */
			static inline uint8_t Pipe_GetBoundEndpointAddress(void) ATTR_WARN_UNUSED_RESULT ATTR_ALWAYS_INLINE;
			static inline uint8_t Pipe_GetBoundEndpointAddress(void)
			{
				return (((UPCFG0X >> PEPNUM0) & PIPE_EPNUM_MASK) |
     b16:	90 91 aa 00 	lds	r25, 0x00AA
			 *  \return The current pipe token, as a \c PIPE_TOKEN_* mask.
			 */
			static inline uint8_t Pipe_GetPipeToken(void) ATTR_WARN_UNUSED_RESULT ATTR_ALWAYS_INLINE;
			static inline uint8_t Pipe_GetPipeToken(void)
			{
				return (UPCFG0X & (0x03 << PTOKEN0));
     b1a:	80 91 aa 00 	lds	r24, 0x00AA
			 *  \return Endpoint address the currently selected pipe is bound to.
			 */
			static inline uint8_t Pipe_GetBoundEndpointAddress(void) ATTR_WARN_UNUSED_RESULT ATTR_ALWAYS_INLINE;
			static inline uint8_t Pipe_GetBoundEndpointAddress(void)
			{
				return (((UPCFG0X >> PEPNUM0) & PIPE_EPNUM_MASK) |
     b1e:	80 73       	andi	r24, 0x30	; 48
     b20:	80 31       	cpi	r24, 0x10	; 16
     b22:	11 f0       	breq	.+4      	; 0xb28 <Pipe_IsEndpointBound+0x26>
     b24:	80 e0       	ldi	r24, 0x00	; 0
     b26:	01 c0       	rjmp	.+2      	; 0xb2a <Pipe_IsEndpointBound+0x28>
     b28:	80 e8       	ldi	r24, 0x80	; 128
		  continue;

		if (Pipe_GetBoundEndpointAddress() == EndpointAddress)
     b2a:	9f 70       	andi	r25, 0x0F	; 15
     b2c:	89 2b       	or	r24, r25
     b2e:	84 17       	cp	r24, r20
     b30:	11 f4       	brne	.+4      	; 0xb36 <Pipe_IsEndpointBound+0x34>
     b32:	81 e0       	ldi	r24, 0x01	; 1
     b34:	08 95       	ret

bool Pipe_IsEndpointBound(const uint8_t EndpointAddress)
{
	uint8_t PrevPipeNumber = Pipe_GetCurrentPipe();

	for (uint8_t PNum = 0; PNum < PIPE_TOTAL_PIPES; PNum++)
     b36:	2f 5f       	subi	r18, 0xFF	; 255
     b38:	27 30       	cpi	r18, 0x07	; 7
     b3a:	39 f7       	brne	.-50     	; 0xb0a <Pipe_IsEndpointBound+0x8>
			 *  \return Index of the currently selected pipe.
			 */
			static inline uint8_t Pipe_GetCurrentPipe(void) ATTR_WARN_UNUSED_RESULT ATTR_ALWAYS_INLINE;
			static inline uint8_t Pipe_GetCurrentPipe(void)
			{
				return (UPNUM & PIPE_PIPENUM_MASK);
     b3c:	37 70       	andi	r19, 0x07	; 7
			 *  \param[in] PipeNumber  Index of the pipe to select.
			 */
			static inline void Pipe_SelectPipe(const uint8_t PipeNumber) ATTR_ALWAYS_INLINE;
			static inline void Pipe_SelectPipe(const uint8_t PipeNumber)
			{
				UPNUM = PipeNumber;
     b3e:	30 93 a7 00 	sts	0x00A7, r19
     b42:	80 e0       	ldi	r24, 0x00	; 0
		  return true;
	}

	Pipe_SelectPipe(PrevPipeNumber);
	return false;
}
     b44:	08 95       	ret

00000b46 <Pipe_WaitUntilReady>:
			 *  \return Current USB frame number from the USB controller.
			 */
			static inline uint16_t USB_Host_GetFrameNumber(void) ATTR_WARN_UNUSED_RESULT ATTR_ALWAYS_INLINE;
			static inline uint16_t USB_Host_GetFrameNumber(void)
			{
				return UHFNUM;
     b46:	40 91 a2 00 	lds	r20, 0x00A2
     b4a:	50 91 a3 00 	lds	r21, 0x00A3
     b4e:	24 e6       	ldi	r18, 0x64	; 100
			 *  \return The current pipe token, as a \c PIPE_TOKEN_* mask.
			 */
			static inline uint8_t Pipe_GetPipeToken(void) ATTR_WARN_UNUSED_RESULT ATTR_ALWAYS_INLINE;
			static inline uint8_t Pipe_GetPipeToken(void)
			{
				return (UPCFG0X & (0x03 << PTOKEN0));
     b50:	80 91 aa 00 	lds	r24, 0x00AA

	uint16_t PreviousFrameNumber = USB_Host_GetFrameNumber();

	for (;;)
	{
		if (Pipe_GetPipeToken() == PIPE_TOKEN_IN)
     b54:	80 73       	andi	r24, 0x30	; 48
     b56:	80 31       	cpi	r24, 0x10	; 16
     b58:	29 f4       	brne	.+10     	; 0xb64 <Pipe_WaitUntilReady+0x1e>
			 *  \return Boolean \c true if the current pipe has received an IN packet, \c false otherwise.
			 */
			static inline bool Pipe_IsINReceived(void) ATTR_WARN_UNUSED_RESULT ATTR_ALWAYS_INLINE;
			static inline bool Pipe_IsINReceived(void)
			{
				return ((UPINTX & (1 << RXINI)) ? true : false);
     b5a:	80 91 a6 00 	lds	r24, 0x00A6
		{
			if (Pipe_IsINReceived())
     b5e:	80 ff       	sbrs	r24, 0
     b60:	05 c0       	rjmp	.+10     	; 0xb6c <Pipe_WaitUntilReady+0x26>
     b62:	1e c0       	rjmp	.+60     	; 0xba0 <Pipe_WaitUntilReady+0x5a>
			 *  \return Boolean \c true if the current pipe is ready for an OUT packet, \c false otherwise.
			 */
			static inline bool Pipe_IsOUTReady(void) ATTR_WARN_UNUSED_RESULT ATTR_ALWAYS_INLINE;
			static inline bool Pipe_IsOUTReady(void)
			{
				return ((UPINTX & (1 << TXOUTI)) ? true : false);
     b64:	80 91 a6 00 	lds	r24, 0x00A6
			  return PIPE_READYWAIT_NoError;
		}
		else
		{
			if (Pipe_IsOUTReady())
     b68:	82 fd       	sbrc	r24, 2
     b6a:	1a c0       	rjmp	.+52     	; 0xba0 <Pipe_WaitUntilReady+0x5a>
			 *  \return Boolean \c true if the current pipe has been stalled by the attached device, \c false otherwise.
			 */
			static inline bool Pipe_IsStalled(void) ATTR_WARN_UNUSED_RESULT ATTR_ALWAYS_INLINE;
			static inline bool Pipe_IsStalled(void)
			{
				return ((UPINTX & (1 << RXSTALLI)) ? true : false);
     b6c:	80 91 a6 00 	lds	r24, 0x00A6
			  return PIPE_READYWAIT_NoError;
		}

		if (Pipe_IsStalled())
     b70:	81 ff       	sbrs	r24, 1
     b72:	02 c0       	rjmp	.+4      	; 0xb78 <Pipe_WaitUntilReady+0x32>
     b74:	81 e0       	ldi	r24, 0x01	; 1
     b76:	08 95       	ret
		  return PIPE_READYWAIT_PipeStalled;
		else if (USB_HostState == HOST_STATE_Unattached)
     b78:	80 91 0a 05 	lds	r24, 0x050A
     b7c:	81 30       	cpi	r24, 0x01	; 1
     b7e:	11 f4       	brne	.+4      	; 0xb84 <Pipe_WaitUntilReady+0x3e>
     b80:	82 e0       	ldi	r24, 0x02	; 2
     b82:	08 95       	ret
     b84:	80 91 a2 00 	lds	r24, 0x00A2
     b88:	90 91 a3 00 	lds	r25, 0x00A3
		  return PIPE_READYWAIT_DeviceDisconnected;

		uint16_t CurrentFrameNumber = USB_Host_GetFrameNumber();

		if (CurrentFrameNumber != PreviousFrameNumber)
     b8c:	84 17       	cp	r24, r20
     b8e:	95 07       	cpc	r25, r21
     b90:	f9 f2       	breq	.-66     	; 0xb50 <Pipe_WaitUntilReady+0xa>
		{
			PreviousFrameNumber = CurrentFrameNumber;

			if (!(TimeoutMSRem--))
     b92:	22 23       	and	r18, r18
     b94:	11 f4       	brne	.+4      	; 0xb9a <Pipe_WaitUntilReady+0x54>
     b96:	83 e0       	ldi	r24, 0x03	; 3
     b98:	08 95       	ret
     b9a:	21 50       	subi	r18, 0x01	; 1
     b9c:	ac 01       	movw	r20, r24
     b9e:	d8 cf       	rjmp	.-80     	; 0xb50 <Pipe_WaitUntilReady+0xa>
     ba0:	80 e0       	ldi	r24, 0x00	; 0
			  return PIPE_READYWAIT_Timeout;
		}
	}
}
     ba2:	08 95       	ret

00000ba4 <USB_ResetInterface>:
{
	#if defined(USB_CAN_BE_BOTH)
	bool UIDModeSelectEnabled = ((UHWCON & (1 << UIDE)) != 0);
	#endif

	USB_INT_DisableAllInterrupts();
     ba4:	70 d0       	rcall	.+224    	; 0xc86 <USB_INT_DisableAllInterrupts>
	USB_INT_ClearAllInterrupts();
     ba6:	77 d0       	rcall	.+238    	; 0xc96 <USB_INT_ClearAllInterrupts>
			}

			static inline void USB_Controller_Reset(void) ATTR_ALWAYS_INLINE;
			static inline void USB_Controller_Reset(void)
			{
				USBCON &= ~(1 << USBE);
     ba8:	80 91 d8 00 	lds	r24, 0x00D8
     bac:	8f 77       	andi	r24, 0x7F	; 127
     bae:	80 93 d8 00 	sts	0x00D8, r24
				USBCON |=  (1 << USBE);
     bb2:	80 91 d8 00 	lds	r24, 0x00D8
     bb6:	80 68       	ori	r24, 0x80	; 128
     bb8:	80 93 d8 00 	sts	0x00D8, r24
			}

			static inline void USB_CLK_Unfreeze(void) ATTR_ALWAYS_INLINE;
			static inline void USB_CLK_Unfreeze(void)
			{
				USBCON  &= ~(1 << FRZCLK);
     bbc:	80 91 d8 00 	lds	r24, 0x00D8
     bc0:	8f 7d       	andi	r24, 0xDF	; 223
     bc2:	80 93 d8 00 	sts	0x00D8, r24
		#endif
	}
	else if (USB_CurrentMode == USB_MODE_Host)
	{
		#if defined(USB_CAN_BE_HOST)
		UHWCON &= ~(1 << UIMOD);
     bc6:	80 91 d7 00 	lds	r24, 0x00D7
     bca:	8f 77       	andi	r24, 0x7F	; 127
     bcc:	80 93 d7 00 	sts	0x00D7, r24

		/* Inline Functions: */
			static inline void USB_PLL_On(void) ATTR_ALWAYS_INLINE;
			static inline void USB_PLL_On(void)
			{
				PLLCSR = USB_PLL_PSC;
     bd0:	8c e0       	ldi	r24, 0x0C	; 12
     bd2:	89 bd       	out	0x29, r24	; 41
				PLLCSR = (USB_PLL_PSC | (1 << PLLE));
     bd4:	8e e0       	ldi	r24, 0x0E	; 14
     bd6:	89 bd       	out	0x29, r24	; 41

		if (!(USB_Options & USB_OPT_MANUAL_PLL))
		{
			#if defined(USB_CAN_BE_HOST)
			USB_PLL_On();
			while (!(USB_PLL_IsReady()));		
     bd8:	09 b4       	in	r0, 0x29	; 41
     bda:	00 fe       	sbrs	r0, 0
     bdc:	fd cf       	rjmp	.-6      	; 0xbd8 <USB_ResetInterface+0x34>
#endif

#if defined(USB_CAN_BE_HOST)
static void USB_Init_Host(void)
{
	USB_HostState                = HOST_STATE_Unattached;
     bde:	81 e0       	ldi	r24, 0x01	; 1
     be0:	80 93 0a 05 	sts	0x050A, r24
	USB_Host_ConfigurationNumber = 0;
     be4:	10 92 00 05 	sts	0x0500, r1
	USB_Host_ControlPipeSize     = PIPE_CONTROLPIPE_DEFAULT_SIZE;
     be8:	80 e4       	ldi	r24, 0x40	; 64
     bea:	80 93 23 01 	sts	0x0123, r24
	#if !defined(__DOXYGEN__)
		/* Macros: */
			static inline void USB_Host_HostMode_On(void) ATTR_ALWAYS_INLINE;
			static inline void USB_Host_HostMode_On(void)
			{
				USBCON |=  (1 << HOST);
     bee:	80 91 d8 00 	lds	r24, 0x00D8
     bf2:	80 64       	ori	r24, 0x40	; 64
     bf4:	80 93 d8 00 	sts	0x00D8, r24
			}

			static inline void USB_Host_VBUS_Auto_Off(void) ATTR_ALWAYS_INLINE;
			static inline void USB_Host_VBUS_Auto_Off(void)
			{
				OTGCON |=  (1 << VBUSRQC);
     bf8:	80 91 dd 00 	lds	r24, 0x00DD
     bfc:	81 60       	ori	r24, 0x01	; 1
     bfe:	80 93 dd 00 	sts	0x00DD, r24
			}

			static inline void USB_Host_VBUS_Manual_Enable(void) ATTR_ALWAYS_INLINE;
			static inline void USB_Host_VBUS_Manual_Enable(void)
			{
				OTGCON |=  (1 << VBUSHWC);
     c02:	80 91 dd 00 	lds	r24, 0x00DD
     c06:	84 60       	ori	r24, 0x04	; 4
     c08:	80 93 dd 00 	sts	0x00DD, r24
				UHWCON &= ~(1 << UVCONE);
     c0c:	80 91 d7 00 	lds	r24, 0x00D7
     c10:	8f 7e       	andi	r24, 0xEF	; 239
     c12:	80 93 d7 00 	sts	0x00D7, r24

				DDRE   |=  (1 << 7);
     c16:	6f 9a       	sbi	0x0d, 7	; 13
			}

			static inline void USB_Host_VBUS_Manual_On(void) ATTR_ALWAYS_INLINE;
			static inline void USB_Host_VBUS_Manual_On(void)
			{
				PORTE  |=  (1 << 7);
     c18:	77 9a       	sbi	0x0e, 7	; 14
						break;
					case USB_INT_VBERRI:
						OTGIEN |= (1 << VBERRE);
						break;
					case USB_INT_SRPI:
						OTGIEN |= (1 << SRPE);						
     c1a:	80 91 de 00 	lds	r24, 0x00DE
     c1e:	81 60       	ori	r24, 0x01	; 1
     c20:	80 93 de 00 	sts	0x00DE, r24
						break;
					case USB_INT_RSTI:
						UHIEN  |= (1 << RSTE);
						break;
					case USB_INT_BCERRI:
						OTGIEN |= (1 << BCERRE);
     c24:	80 91 de 00 	lds	r24, 0x00DE
     c28:	84 60       	ori	r24, 0x04	; 4
     c2a:	80 93 de 00 	sts	0x00DE, r24
			 *  register and despite the datasheet making no mention of its requirement in host mode.
			 */
			static inline void USB_Attach(void) ATTR_ALWAYS_INLINE;
			static inline void USB_Attach(void)
			{
				UDCON  &= ~(1 << DETACH);
     c2e:	80 91 e0 00 	lds	r24, 0x00E0
     c32:	8e 7f       	andi	r24, 0xFE	; 254
     c34:	80 93 e0 00 	sts	0x00E0, r24

			#if defined(USB_SERIES_4_AVR) || defined(USB_SERIES_6_AVR) || defined(USB_SERIES_7_AVR)
			static inline void USB_OTGPAD_On(void) ATTR_ALWAYS_INLINE;
			static inline void USB_OTGPAD_On(void)
			{
				USBCON  |=  (1 << OTGPADE);
     c38:	80 91 d8 00 	lds	r24, 0x00D8
     c3c:	80 61       	ori	r24, 0x10	; 16
     c3e:	80 93 d8 00 	sts	0x00D8, r24
	}

	#if (defined(USB_SERIES_4_AVR) || defined(USB_SERIES_6_AVR) || defined(USB_SERIES_7_AVR))
	USB_OTGPAD_On();
	#endif
}
     c42:	08 95       	ret

00000c44 <USB_Init>:

			static inline void USB_REG_On(void) ATTR_ALWAYS_INLINE;
			static inline void USB_REG_On(void)
			{
			#if defined(USB_SERIES_4_AVR) || defined(USB_SERIES_6_AVR) || defined(USB_SERIES_7_AVR)
				UHWCON  |=  (1 << UVREGE);
     c44:	e7 ed       	ldi	r30, 0xD7	; 215
     c46:	f0 e0       	ldi	r31, 0x00	; 0
     c48:	80 81       	ld	r24, Z
     c4a:	81 60       	ori	r24, 0x01	; 1
     c4c:	80 83       	st	Z, r24
		UHWCON &= ~(1 << UIDE);
		USB_CurrentMode = Mode;
	}
	#endif

	USB_IsInitialized = true;
     c4e:	81 e0       	ldi	r24, 0x01	; 1
     c50:	80 93 01 05 	sts	0x0501, r24

	USB_ResetInterface();
}
     c54:	a7 cf       	rjmp	.-178    	; 0xba4 <USB_ResetInterface>

00000c56 <USB_Disable>:

void USB_Disable(void)
{
	USB_INT_DisableAllInterrupts();
     c56:	17 d0       	rcall	.+46     	; 0xc86 <USB_INT_DisableAllInterrupts>
	USB_INT_ClearAllInterrupts();
     c58:	1e d0       	rcall	.+60     	; 0xc96 <USB_INT_ClearAllInterrupts>
			 *  enumerating the device once attached until \ref USB_Attach() is called.
			 */
			static inline void USB_Detach(void) ATTR_ALWAYS_INLINE;
			static inline void USB_Detach(void)
			{
				UDCON  |=  (1 << DETACH);
     c5a:	e0 ee       	ldi	r30, 0xE0	; 224
     c5c:	f0 e0       	ldi	r31, 0x00	; 0
     c5e:	80 81       	ld	r24, Z
     c60:	81 60       	ori	r24, 0x01	; 1
     c62:	80 83       	st	Z, r24
			}

			static inline void USB_Controller_Disable(void) ATTR_ALWAYS_INLINE;
			static inline void USB_Controller_Disable(void)
			{
				USBCON  &= ~(1 << USBE);
     c64:	a8 ed       	ldi	r26, 0xD8	; 216
     c66:	b0 e0       	ldi	r27, 0x00	; 0
     c68:	8c 91       	ld	r24, X
     c6a:	8f 77       	andi	r24, 0x7F	; 127
     c6c:	8c 93       	st	X, r24
			}

			static inline void USB_PLL_Off(void) ATTR_ALWAYS_INLINE;
			static inline void USB_PLL_Off(void)
			{
				PLLCSR = 0;
     c6e:	19 bc       	out	0x29, r1	; 41

			static inline void USB_REG_Off(void) ATTR_ALWAYS_INLINE;
			static inline void USB_REG_Off(void)
			{
			#if defined(USB_SERIES_4_AVR) || defined(USB_SERIES_6_AVR) || defined(USB_SERIES_7_AVR)
				UHWCON  &= ~(1 << UVREGE);
     c70:	e7 ed       	ldi	r30, 0xD7	; 215
     c72:	f0 e0       	ldi	r31, 0x00	; 0
     c74:	80 81       	ld	r24, Z
     c76:	8e 7f       	andi	r24, 0xFE	; 254
     c78:	80 83       	st	Z, r24
			}

			static inline void USB_OTGPAD_Off(void) ATTR_ALWAYS_INLINE;
			static inline void USB_OTGPAD_Off(void)
			{
				USBCON  &= ~(1 << OTGPADE);
     c7a:	8c 91       	ld	r24, X
     c7c:	8f 7e       	andi	r24, 0xEF	; 239
     c7e:	8c 93       	st	X, r24

	#if defined(USB_CAN_BE_BOTH)
	USB_CurrentMode = USB_MODE_None;
	#endif

	USB_IsInitialized = false;
     c80:	10 92 01 05 	sts	0x0501, r1
}
     c84:	08 95       	ret

00000c86 <USB_INT_DisableAllInterrupts>:
#include "../USBInterrupt.h"

void USB_INT_DisableAllInterrupts(void)
{
	#if defined(USB_SERIES_6_AVR) || defined(USB_SERIES_7_AVR)
	USBCON &= ~((1 << VBUSTE) | (1 << IDTE));
     c86:	e8 ed       	ldi	r30, 0xD8	; 216
     c88:	f0 e0       	ldi	r31, 0x00	; 0
     c8a:	80 81       	ld	r24, Z
     c8c:	8c 7f       	andi	r24, 0xFC	; 252
     c8e:	80 83       	st	Z, r24
	#if defined(USB_CAN_BE_BOTH)
	OTGIEN  = 0;
	#endif

	#if defined(USB_CAN_BE_HOST)
	UHIEN   = 0;
     c90:	10 92 a0 00 	sts	0x00A0, r1
	#endif

	#if defined(USB_CAN_BE_DEVICE)
	UDIEN   = 0;
	#endif
}
     c94:	08 95       	ret

00000c96 <USB_INT_ClearAllInterrupts>:

void USB_INT_ClearAllInterrupts(void)
{
	#if defined(USB_SERIES_4_AVR) || defined(USB_SERIES_6_AVR) || defined(USB_SERIES_7_AVR)
	USBINT = 0;
     c96:	10 92 da 00 	sts	0x00DA, r1
	#if defined(USB_CAN_BE_BOTH)
	OTGINT = 0;
	#endif

	#if defined(USB_CAN_BE_HOST)
	UHINT  = 0;
     c9a:	10 92 9f 00 	sts	0x009F, r1
	#endif

	#if defined(USB_CAN_BE_DEVICE)
	UDINT  = 0;
	#endif
}
     c9e:	08 95       	ret

00000ca0 <__vector_10>:

ISR(USB_GEN_vect, ISR_BLOCK)
{
     ca0:	1f 92       	push	r1
     ca2:	0f 92       	push	r0
     ca4:	0f b6       	in	r0, 0x3f	; 63
     ca6:	0f 92       	push	r0
     ca8:	0b b6       	in	r0, 0x3b	; 59
     caa:	0f 92       	push	r0
     cac:	11 24       	eor	r1, r1
     cae:	2f 93       	push	r18
     cb0:	3f 93       	push	r19
     cb2:	4f 93       	push	r20
     cb4:	5f 93       	push	r21
     cb6:	6f 93       	push	r22
     cb8:	7f 93       	push	r23
     cba:	8f 93       	push	r24
     cbc:	9f 93       	push	r25
     cbe:	af 93       	push	r26
     cc0:	bf 93       	push	r27
     cc2:	ef 93       	push	r30
     cc4:	ff 93       	push	r31
					case USB_INT_RXSTPI:
						return (UEINTX & (1 << RXSTPI));
					#endif
					#if defined(USB_CAN_BE_HOST)
					case USB_INT_HSOFI:
						return (UHINT  & (1 << HSOFI));
     cc6:	80 91 9f 00 	lds	r24, 0x009F
	}
	#endif

	#if defined(USB_CAN_BE_HOST)
	#if !defined(NO_SOF_EVENTS)
	if (USB_INT_HasOccurred(USB_INT_HSOFI) && USB_INT_IsEnabled(USB_INT_HSOFI))
     cca:	85 ff       	sbrs	r24, 5
     ccc:	0a c0       	rjmp	.+20     	; 0xce2 <__vector_10+0x42>
					case USB_INT_RXSTPI:
						return (UEIENX & (1 << RXSTPE));
					#endif
					#if defined(USB_CAN_BE_HOST)
					case USB_INT_HSOFI:
						return (UHIEN  & (1 << HSOFE));
     cce:	80 91 a0 00 	lds	r24, 0x00A0
     cd2:	85 ff       	sbrs	r24, 5
     cd4:	06 c0       	rjmp	.+12     	; 0xce2 <__vector_10+0x42>
						UEINTX &= ~(1 << RXSTPI);
						break;
					#endif
					#if defined(USB_CAN_BE_HOST)
					case USB_INT_HSOFI:
						UHINT  &= ~(1 << HSOFI);
     cd6:	80 91 9f 00 	lds	r24, 0x009F
     cda:	8f 7d       	andi	r24, 0xDF	; 223
     cdc:	80 93 9f 00 	sts	0x009F, r24
	{
		USB_INT_Clear(USB_INT_HSOFI);

		EVENT_USB_Host_StartOfFrame();
     ce0:	67 d1       	rcall	.+718    	; 0xfb0 <USB_Event_Stub>
					case USB_INT_HSOFI:
						return (UHINT  & (1 << HSOFI));
					case USB_INT_DCONNI:
						return (UHINT  & (1 << DCONNI));
					case USB_INT_DDISCI:
						return (UHINT  & (1 << DDISCI));
     ce2:	80 91 9f 00 	lds	r24, 0x009F
	}
	#endif

	if (USB_INT_HasOccurred(USB_INT_DDISCI) && USB_INT_IsEnabled(USB_INT_DDISCI))
     ce6:	81 ff       	sbrs	r24, 1
     ce8:	15 c0       	rjmp	.+42     	; 0xd14 <__vector_10+0x74>
					case USB_INT_HSOFI:
						return (UHIEN  & (1 << HSOFE));
					case USB_INT_DCONNI:
						return (UHIEN  & (1 << DCONNE));
					case USB_INT_DDISCI:
						return (UHIEN  & (1 << DDISCE));
     cea:	80 91 a0 00 	lds	r24, 0x00A0
     cee:	81 ff       	sbrs	r24, 1
     cf0:	11 c0       	rjmp	.+34     	; 0xd14 <__vector_10+0x74>
						break;
					case USB_INT_DCONNI:
						UHINT  &= ~(1 << DCONNI);
						break;
					case USB_INT_DDISCI:
						UHINT  &= ~(1 << DDISCI);
     cf2:	80 91 9f 00 	lds	r24, 0x009F
     cf6:	8d 7f       	andi	r24, 0xFD	; 253
     cf8:	80 93 9f 00 	sts	0x009F, r24
					#if defined(USB_CAN_BE_HOST)
					case USB_INT_HSOFI:
						UHINT  &= ~(1 << HSOFI);
						break;
					case USB_INT_DCONNI:
						UHINT  &= ~(1 << DCONNI);
     cfc:	80 91 9f 00 	lds	r24, 0x009F
     d00:	8e 7f       	andi	r24, 0xFE	; 254
     d02:	80 93 9f 00 	sts	0x009F, r24
						break;
					case USB_INT_DCONNI:
						UHIEN  &= ~(1 << DCONNE);
						break;
					case USB_INT_DDISCI:
						UHIEN  &= ~(1 << DDISCE);
     d06:	80 91 a0 00 	lds	r24, 0x00A0
     d0a:	8d 7f       	andi	r24, 0xFD	; 253
     d0c:	80 93 a0 00 	sts	0x00A0, r24
	{
		USB_INT_Clear(USB_INT_DDISCI);
		USB_INT_Clear(USB_INT_DCONNI);
		USB_INT_Disable(USB_INT_DDISCI);

		EVENT_USB_Host_DeviceUnattached();
     d10:	1d db       	rcall	.-2502   	; 0x34c <EVENT_USB_Host_DeviceUnattached>

		USB_ResetInterface();
     d12:	48 df       	rcall	.-368    	; 0xba4 <USB_ResetInterface>
					case USB_INT_RSTI:
						return (UHINT  & (1 << RSTI));
					case USB_INT_BCERRI:
						return (OTGINT & (1 << BCERRI));
					case USB_INT_VBERRI:
						return (OTGINT & (1 << VBERRI));
     d14:	80 91 df 00 	lds	r24, 0x00DF
	}

	if (USB_INT_HasOccurred(USB_INT_VBERRI) && USB_INT_IsEnabled(USB_INT_VBERRI))
     d18:	81 ff       	sbrs	r24, 1
     d1a:	15 c0       	rjmp	.+42     	; 0xd46 <__vector_10+0xa6>
					case USB_INT_RSTI:
						return (UHIEN  & (1 << RSTE));
					case USB_INT_BCERRI:
						return (OTGIEN & (1 << BCERRE));
					case USB_INT_VBERRI:
						return (OTGIEN & (1 << VBERRE));
     d1c:	80 91 de 00 	lds	r24, 0x00DE
     d20:	81 ff       	sbrs	r24, 1
     d22:	11 c0       	rjmp	.+34     	; 0xd46 <__vector_10+0xa6>
						break;
					case USB_INT_BCERRI:
						OTGINT &= ~(1 << BCERRI);
						break;
					case USB_INT_VBERRI:
						OTGINT &= ~(1 << VBERRI);
     d24:	80 91 df 00 	lds	r24, 0x00DF
     d28:	8d 7f       	andi	r24, 0xFD	; 253
     d2a:	80 93 df 00 	sts	0x00DF, r24
			}

			static inline void USB_Host_VBUS_Manual_Off(void) ATTR_ALWAYS_INLINE;
			static inline void USB_Host_VBUS_Manual_Off(void)
			{
				PORTE  &= ~(1 << 7);
     d2e:	77 98       	cbi	0x0e, 7	; 14
			}

			static inline void USB_Host_VBUS_Auto_Off(void) ATTR_ALWAYS_INLINE;
			static inline void USB_Host_VBUS_Auto_Off(void)
			{
				OTGCON |=  (1 << VBUSRQC);
     d30:	80 91 dd 00 	lds	r24, 0x00DD
     d34:	81 60       	ori	r24, 0x01	; 1
     d36:	80 93 dd 00 	sts	0x00DD, r24
		USB_INT_Clear(USB_INT_VBERRI);

		USB_Host_VBUS_Manual_Off();
		USB_Host_VBUS_Auto_Off();

		EVENT_USB_Host_HostError(HOST_ERROR_VBusVoltageDip);
     d3a:	80 e0       	ldi	r24, 0x00	; 0
     d3c:	ea da       	rcall	.-2604   	; 0x312 <EVENT_USB_Host_HostError>
		EVENT_USB_Host_DeviceUnattached();
     d3e:	06 db       	rcall	.-2548   	; 0x34c <EVENT_USB_Host_DeviceUnattached>

		USB_HostState = HOST_STATE_Unattached;
     d40:	81 e0       	ldi	r24, 0x01	; 1
     d42:	80 93 0a 05 	sts	0x050A, r24
					case USB_INT_BCERRI:
						return (OTGINT & (1 << BCERRI));
					case USB_INT_VBERRI:
						return (OTGINT & (1 << VBERRI));
					case USB_INT_SRPI:
						return (OTGINT & (1 << SRPI));
     d46:	80 91 df 00 	lds	r24, 0x00DF
	}

	if (USB_INT_HasOccurred(USB_INT_SRPI) && USB_INT_IsEnabled(USB_INT_SRPI))
     d4a:	80 ff       	sbrs	r24, 0
     d4c:	17 c0       	rjmp	.+46     	; 0xd7c <__vector_10+0xdc>
					case USB_INT_BCERRI:
						return (OTGIEN & (1 << BCERRE));
					case USB_INT_VBERRI:
						return (OTGIEN & (1 << VBERRE));
					case USB_INT_SRPI:
						return (OTGIEN & (1 << SRPE));
     d4e:	80 91 de 00 	lds	r24, 0x00DE
     d52:	80 ff       	sbrs	r24, 0
     d54:	13 c0       	rjmp	.+38     	; 0xd7c <__vector_10+0xdc>
						break;
					case USB_INT_VBERRI:
						OTGINT &= ~(1 << VBERRI);
						break;
					case USB_INT_SRPI:
						OTGINT &= ~(1 << SRPI);
     d56:	80 91 df 00 	lds	r24, 0x00DF
     d5a:	8e 7f       	andi	r24, 0xFE	; 254
     d5c:	80 93 df 00 	sts	0x00DF, r24
						break;
					case USB_INT_VBERRI:
						OTGIEN &= ~(1 << VBERRE);
						break;
					case USB_INT_SRPI:
						OTGIEN &= ~(1 << SRPE);						
     d60:	80 91 de 00 	lds	r24, 0x00DE
     d64:	8e 7f       	andi	r24, 0xFE	; 254
     d66:	80 93 de 00 	sts	0x00DE, r24
	{
		USB_INT_Clear(USB_INT_SRPI);
		USB_INT_Disable(USB_INT_SRPI);

		EVENT_USB_Host_DeviceAttached();
     d6a:	f9 da       	rcall	.-2574   	; 0x35e <EVENT_USB_Host_DeviceAttached>
						break;
					case USB_INT_DCONNI:
						UHIEN  |= (1 << DCONNE);
						break;
					case USB_INT_DDISCI:
						UHIEN  |= (1 << DDISCE);
     d6c:	80 91 a0 00 	lds	r24, 0x00A0
     d70:	82 60       	ori	r24, 0x02	; 2
     d72:	80 93 a0 00 	sts	0x00A0, r24

		USB_INT_Enable(USB_INT_DDISCI);

		USB_HostState = HOST_STATE_Powered;
     d76:	82 e0       	ldi	r24, 0x02	; 2
     d78:	80 93 0a 05 	sts	0x050A, r24
					case USB_INT_DDISCI:
						return (UHINT  & (1 << DDISCI));
					case USB_INT_RSTI:
						return (UHINT  & (1 << RSTI));
					case USB_INT_BCERRI:
						return (OTGINT & (1 << BCERRI));
     d7c:	80 91 df 00 	lds	r24, 0x00DF
	}

	if (USB_INT_HasOccurred(USB_INT_BCERRI) && USB_INT_IsEnabled(USB_INT_BCERRI))
     d80:	82 ff       	sbrs	r24, 2
     d82:	0e c0       	rjmp	.+28     	; 0xda0 <__vector_10+0x100>
					case USB_INT_DDISCI:
						return (UHIEN  & (1 << DDISCE));
					case USB_INT_RSTI:
						return (UHIEN  & (1 << RSTE));
					case USB_INT_BCERRI:
						return (OTGIEN & (1 << BCERRE));
     d84:	80 91 de 00 	lds	r24, 0x00DE
     d88:	82 ff       	sbrs	r24, 2
     d8a:	0a c0       	rjmp	.+20     	; 0xda0 <__vector_10+0x100>
						break;
					case USB_INT_RSTI:
						UHINT  &= ~(1 << RSTI);
						break;
					case USB_INT_BCERRI:
						OTGINT &= ~(1 << BCERRI);
     d8c:	80 91 df 00 	lds	r24, 0x00DF
     d90:	8b 7f       	andi	r24, 0xFB	; 251
     d92:	80 93 df 00 	sts	0x00DF, r24
	{
		USB_INT_Clear(USB_INT_BCERRI);

		EVENT_USB_Host_DeviceEnumerationFailed(HOST_ENUMERROR_NoDeviceDetected, 0);
     d96:	82 e0       	ldi	r24, 0x02	; 2
     d98:	60 e0       	ldi	r22, 0x00	; 0
     d9a:	8f da       	rcall	.-2786   	; 0x2ba <EVENT_USB_Host_DeviceEnumerationFailed>
		EVENT_USB_Host_DeviceUnattached();
     d9c:	d7 da       	rcall	.-2642   	; 0x34c <EVENT_USB_Host_DeviceUnattached>

		USB_ResetInterface();
     d9e:	02 df       	rcall	.-508    	; 0xba4 <USB_ResetInterface>
		USB_ResetInterface();

		EVENT_USB_UIDChange();
	}
	#endif
}
     da0:	ff 91       	pop	r31
     da2:	ef 91       	pop	r30
     da4:	bf 91       	pop	r27
     da6:	af 91       	pop	r26
     da8:	9f 91       	pop	r25
     daa:	8f 91       	pop	r24
     dac:	7f 91       	pop	r23
     dae:	6f 91       	pop	r22
     db0:	5f 91       	pop	r21
     db2:	4f 91       	pop	r20
     db4:	3f 91       	pop	r19
     db6:	2f 91       	pop	r18
     db8:	0f 90       	pop	r0
     dba:	0b be       	out	0x3b, r0	; 59
     dbc:	0f 90       	pop	r0
     dbe:	0f be       	out	0x3f, r0	; 63
     dc0:	0f 90       	pop	r0
     dc2:	1f 90       	pop	r1
     dc4:	18 95       	reti

00000dc6 <Pipe_Read_Stream_LE>:
#if defined(TEMPLATE_FUNC_NAME)

uint8_t TEMPLATE_FUNC_NAME (TEMPLATE_BUFFER_TYPE const Buffer,
                            uint16_t Length,
                            uint16_t* const BytesProcessed)
{
     dc6:	bf 92       	push	r11
     dc8:	cf 92       	push	r12
     dca:	df 92       	push	r13
     dcc:	ef 92       	push	r14
     dce:	ff 92       	push	r15
     dd0:	0f 93       	push	r16
     dd2:	1f 93       	push	r17
     dd4:	cf 93       	push	r28
     dd6:	df 93       	push	r29
     dd8:	18 2f       	mov	r17, r24
     dda:	09 2f       	mov	r16, r25
     ddc:	7b 01       	movw	r14, r22
     dde:	6a 01       	movw	r12, r20
			 *  \param[in] Token  New pipe token to set the selected pipe to, as a \c PIPE_TOKEN_* mask.
			 */
			static inline void Pipe_SetPipeToken(const uint8_t Token) ATTR_ALWAYS_INLINE;
			static inline void Pipe_SetPipeToken(const uint8_t Token)
			{
				UPCFG0X = ((UPCFG0X & ~(0x03 << PTOKEN0)) | Token);
     de0:	80 91 aa 00 	lds	r24, 0x00AA
     de4:	8f 7c       	andi	r24, 0xCF	; 207
     de6:	80 61       	ori	r24, 0x10	; 16
     de8:	80 93 aa 00 	sts	0x00AA, r24
	uint16_t BytesInTransfer = 0;
	uint8_t  ErrorCode;

	Pipe_SetPipeToken(TEMPLATE_TOKEN);

	if ((ErrorCode = Pipe_WaitUntilReady()))
     dec:	ac de       	rcall	.-680    	; 0xb46 <Pipe_WaitUntilReady>
     dee:	b8 2e       	mov	r11, r24
     df0:	88 23       	and	r24, r24
     df2:	a9 f5       	brne	.+106    	; 0xe5e <Pipe_Read_Stream_LE+0x98>

uint8_t TEMPLATE_FUNC_NAME (TEMPLATE_BUFFER_TYPE const Buffer,
                            uint16_t Length,
                            uint16_t* const BytesProcessed)
{
	uint8_t* DataStream      = ((uint8_t*)Buffer + TEMPLATE_BUFFER_OFFSET(Length));
     df4:	81 2f       	mov	r24, r17
     df6:	90 2f       	mov	r25, r16
     df8:	9c 01       	movw	r18, r24
     dfa:	e9 01       	movw	r28, r18
	Pipe_SetPipeToken(TEMPLATE_TOKEN);

	if ((ErrorCode = Pipe_WaitUntilReady()))
	  return ErrorCode;

	if (BytesProcessed != NULL)
     dfc:	c1 14       	cp	r12, r1
     dfe:	d1 04       	cpc	r13, r1
     e00:	39 f0       	breq	.+14     	; 0xe10 <Pipe_Read_Stream_LE+0x4a>
	{
		Length -= *BytesProcessed;
     e02:	f6 01       	movw	r30, r12
     e04:	80 81       	ld	r24, Z
     e06:	91 81       	ldd	r25, Z+1	; 0x01
     e08:	e8 1a       	sub	r14, r24
     e0a:	f9 0a       	sbc	r15, r25
		TEMPLATE_BUFFER_MOVE(DataStream, *BytesProcessed);
     e0c:	c8 0f       	add	r28, r24
     e0e:	d9 1f       	adc	r29, r25
     e10:	00 e0       	ldi	r16, 0x00	; 0
     e12:	10 e0       	ldi	r17, 0x00	; 0
     e14:	21 c0       	rjmp	.+66     	; 0xe58 <Pipe_Read_Stream_LE+0x92>
			 *          on its direction.
			 */
			static inline bool Pipe_IsReadWriteAllowed(void) ATTR_WARN_UNUSED_RESULT ATTR_ALWAYS_INLINE;
			static inline bool Pipe_IsReadWriteAllowed(void)
			{
				return ((UPINTX & (1 << RWAL)) ? true : false);
     e16:	80 91 a6 00 	lds	r24, 0x00A6
	}
	
	while (Length)
	{
		if (!(Pipe_IsReadWriteAllowed()))
     e1a:	85 fd       	sbrc	r24, 5
     e1c:	15 c0       	rjmp	.+42     	; 0xe48 <Pipe_Read_Stream_LE+0x82>
			 *  \ingroup Group_PipePacketManagement_AVR8
			 */
			static inline void Pipe_ClearIN(void) ATTR_ALWAYS_INLINE;
			static inline void Pipe_ClearIN(void)
			{
				UPINTX &= ~((1 << RXINI) | (1 << FIFOCON));
     e1e:	80 91 a6 00 	lds	r24, 0x00A6
     e22:	8e 77       	andi	r24, 0x7E	; 126
     e24:	80 93 a6 00 	sts	0x00A6, r24
		{
			TEMPLATE_CLEAR_PIPE();

			if (BytesProcessed != NULL)
     e28:	c1 14       	cp	r12, r1
     e2a:	d1 04       	cpc	r13, r1
     e2c:	49 f0       	breq	.+18     	; 0xe40 <Pipe_Read_Stream_LE+0x7a>
			{
				*BytesProcessed += BytesInTransfer;
     e2e:	f6 01       	movw	r30, r12
     e30:	80 81       	ld	r24, Z
     e32:	91 81       	ldd	r25, Z+1	; 0x01
     e34:	80 0f       	add	r24, r16
     e36:	91 1f       	adc	r25, r17
     e38:	91 83       	std	Z+1, r25	; 0x01
     e3a:	80 83       	st	Z, r24
     e3c:	84 e0       	ldi	r24, 0x04	; 4
     e3e:	10 c0       	rjmp	.+32     	; 0xe60 <Pipe_Read_Stream_LE+0x9a>
				return PIPE_RWSTREAM_IncompleteTransfer;
			}

			if ((ErrorCode = Pipe_WaitUntilReady()))
     e40:	82 de       	rcall	.-764    	; 0xb46 <Pipe_WaitUntilReady>
     e42:	88 23       	and	r24, r24
     e44:	49 f0       	breq	.+18     	; 0xe58 <Pipe_Read_Stream_LE+0x92>
     e46:	0c c0       	rjmp	.+24     	; 0xe60 <Pipe_Read_Stream_LE+0x9a>
			 *  \return Next byte in the currently selected pipe's FIFO buffer.
			 */
			static inline uint8_t Pipe_Read_8(void) ATTR_WARN_UNUSED_RESULT ATTR_ALWAYS_INLINE;
			static inline uint8_t Pipe_Read_8(void)
			{
				return UPDATX;
     e48:	80 91 af 00 	lds	r24, 0x00AF
			  return ErrorCode;
		}
		else
		{
			TEMPLATE_TRANSFER_BYTE(DataStream);
     e4c:	89 93       	st	Y+, r24
			TEMPLATE_BUFFER_MOVE(DataStream, 1);
			Length--;
     e4e:	08 94       	sec
     e50:	e1 08       	sbc	r14, r1
     e52:	f1 08       	sbc	r15, r1
			BytesInTransfer++;
     e54:	0f 5f       	subi	r16, 0xFF	; 255
     e56:	1f 4f       	sbci	r17, 0xFF	; 255
	{
		Length -= *BytesProcessed;
		TEMPLATE_BUFFER_MOVE(DataStream, *BytesProcessed);
	}
	
	while (Length)
     e58:	e1 14       	cp	r14, r1
     e5a:	f1 04       	cpc	r15, r1
     e5c:	e1 f6       	brne	.-72     	; 0xe16 <Pipe_Read_Stream_LE+0x50>
     e5e:	8b 2d       	mov	r24, r11
			BytesInTransfer++;
		}
	}

	return PIPE_RWSTREAM_NoError;
}
     e60:	df 91       	pop	r29
     e62:	cf 91       	pop	r28
     e64:	1f 91       	pop	r17
     e66:	0f 91       	pop	r16
     e68:	ff 90       	pop	r15
     e6a:	ef 90       	pop	r14
     e6c:	df 90       	pop	r13
     e6e:	cf 90       	pop	r12
     e70:	bf 90       	pop	r11
     e72:	08 95       	ret

00000e74 <USB_GetNextDescriptorComp>:

uint8_t USB_GetNextDescriptorComp(uint16_t* const BytesRem,
                                  void** const CurrConfigLoc,
                                  ConfigComparatorPtr_t const ComparatorRoutine)
{
     e74:	af 92       	push	r10
     e76:	bf 92       	push	r11
     e78:	cf 92       	push	r12
     e7a:	df 92       	push	r13
     e7c:	ef 92       	push	r14
     e7e:	ff 92       	push	r15
     e80:	0f 93       	push	r16
     e82:	1f 93       	push	r17
     e84:	cf 93       	push	r28
     e86:	df 93       	push	r29
     e88:	7c 01       	movw	r14, r24
     e8a:	eb 01       	movw	r28, r22
     e8c:	6a 01       	movw	r12, r20
     e8e:	24 c0       	rjmp	.+72     	; 0xed8 <USB_GetNextDescriptorComp+0x64>
	uint8_t ErrorCode;

	while (*BytesRem)
	{
		uint8_t* PrevDescLoc  = *CurrConfigLoc;
     e90:	e8 81       	ld	r30, Y
     e92:	f9 81       	ldd	r31, Y+1	; 0x01
     e94:	be 2e       	mov	r11, r30
     e96:	af 2e       	mov	r10, r31
			static inline void USB_GetNextDescriptor(uint16_t* const BytesRem,
			                                         void** CurrConfigLoc) ATTR_NON_NULL_PTR_ARG(1) ATTR_NON_NULL_PTR_ARG(2);
			static inline void USB_GetNextDescriptor(uint16_t* const BytesRem,
			                                         void** CurrConfigLoc)
			{
				uint16_t CurrDescriptorSize = DESCRIPTOR_CAST(*CurrConfigLoc, USB_Descriptor_Header_t).Size;
     e98:	80 81       	ld	r24, Z
     e9a:	90 e0       	ldi	r25, 0x00	; 0
     e9c:	98 01       	movw	r18, r16
     e9e:	80 17       	cp	r24, r16
     ea0:	91 07       	cpc	r25, r17
     ea2:	08 f4       	brcc	.+2      	; 0xea6 <USB_GetNextDescriptorComp+0x32>
     ea4:	9c 01       	movw	r18, r24
				
				if (*BytesRem < CurrDescriptorSize)
				  CurrDescriptorSize = *BytesRem;

				*CurrConfigLoc  = (void*)((uintptr_t)*CurrConfigLoc + CurrDescriptorSize);
     ea6:	e2 0f       	add	r30, r18
     ea8:	f3 1f       	adc	r31, r19
     eaa:	f9 83       	std	Y+1, r31	; 0x01
     eac:	e8 83       	st	Y, r30
				*BytesRem      -= CurrDescriptorSize;
     eae:	f7 01       	movw	r30, r14
     eb0:	80 81       	ld	r24, Z
     eb2:	91 81       	ldd	r25, Z+1	; 0x01
     eb4:	82 1b       	sub	r24, r18
     eb6:	93 0b       	sbc	r25, r19
     eb8:	91 83       	std	Z+1, r25	; 0x01
     eba:	80 83       	st	Z, r24
		uint16_t PrevBytesRem = *BytesRem;

		USB_GetNextDescriptor(BytesRem, CurrConfigLoc);

		if ((ErrorCode = ComparatorRoutine(*CurrConfigLoc)) != DESCRIPTOR_SEARCH_NotFound)
     ebc:	88 81       	ld	r24, Y
     ebe:	99 81       	ldd	r25, Y+1	; 0x01
     ec0:	f6 01       	movw	r30, r12
     ec2:	09 95       	icall
     ec4:	82 30       	cpi	r24, 0x02	; 2
     ec6:	41 f0       	breq	.+16     	; 0xed8 <USB_GetNextDescriptorComp+0x64>
		{
			if (ErrorCode == DESCRIPTOR_SEARCH_Fail)
     ec8:	81 30       	cpi	r24, 0x01	; 1
     eca:	69 f4       	brne	.+26     	; 0xee6 <USB_GetNextDescriptorComp+0x72>
			{
				*CurrConfigLoc = PrevDescLoc;
     ecc:	b8 82       	st	Y, r11
     ece:	a9 82       	std	Y+1, r10	; 0x01
				*BytesRem      = PrevBytesRem;
     ed0:	f7 01       	movw	r30, r14
     ed2:	11 83       	std	Z+1, r17	; 0x01
     ed4:	00 83       	st	Z, r16
     ed6:	07 c0       	rjmp	.+14     	; 0xee6 <USB_GetNextDescriptorComp+0x72>
                                  void** const CurrConfigLoc,
                                  ConfigComparatorPtr_t const ComparatorRoutine)
{
	uint8_t ErrorCode;

	while (*BytesRem)
     ed8:	f7 01       	movw	r30, r14
     eda:	00 81       	ld	r16, Z
     edc:	11 81       	ldd	r17, Z+1	; 0x01
     ede:	01 15       	cp	r16, r1
     ee0:	11 05       	cpc	r17, r1
     ee2:	b1 f6       	brne	.-84     	; 0xe90 <USB_GetNextDescriptorComp+0x1c>
     ee4:	82 e0       	ldi	r24, 0x02	; 2
			return ErrorCode;
		}
	}

	return DESCRIPTOR_SEARCH_COMP_EndOfDescriptor;
}
     ee6:	df 91       	pop	r29
     ee8:	cf 91       	pop	r28
     eea:	1f 91       	pop	r17
     eec:	0f 91       	pop	r16
     eee:	ff 90       	pop	r15
     ef0:	ef 90       	pop	r14
     ef2:	df 90       	pop	r13
     ef4:	cf 90       	pop	r12
     ef6:	bf 90       	pop	r11
     ef8:	af 90       	pop	r10
     efa:	08 95       	ret

00000efc <USB_Host_GetDeviceConfigDescriptor>:
#if defined(USB_CAN_BE_HOST)
uint8_t USB_Host_GetDeviceConfigDescriptor(const uint8_t ConfigNumber,
                                           uint16_t* const ConfigSizePtr,
                                           void* const BufferPtr,
                                           const uint16_t BufferSize)
{
     efc:	cf 92       	push	r12
     efe:	df 92       	push	r13
     f00:	ef 92       	push	r14
     f02:	ff 92       	push	r15
     f04:	0f 93       	push	r16
     f06:	1f 93       	push	r17
     f08:	df 93       	push	r29
     f0a:	cf 93       	push	r28
     f0c:	cd b7       	in	r28, 0x3d	; 61
     f0e:	de b7       	in	r29, 0x3e	; 62
     f10:	29 97       	sbiw	r28, 0x09	; 9
     f12:	0f b6       	in	r0, 0x3f	; 63
     f14:	f8 94       	cli
     f16:	de bf       	out	0x3e, r29	; 62
     f18:	0f be       	out	0x3f, r0	; 63
     f1a:	cd bf       	out	0x3d, r28	; 61
     f1c:	6b 01       	movw	r12, r22
     f1e:	8a 01       	movw	r16, r20
     f20:	79 01       	movw	r14, r18
	uint8_t ErrorCode;
	uint8_t ConfigHeader[sizeof(USB_Descriptor_Configuration_Header_t)];

	USB_ControlRequest = (USB_Request_Header_t)
     f22:	90 e8       	ldi	r25, 0x80	; 128
     f24:	90 93 02 05 	sts	0x0502, r25
     f28:	96 e0       	ldi	r25, 0x06	; 6
     f2a:	90 93 03 05 	sts	0x0503, r25
     f2e:	90 e0       	ldi	r25, 0x00	; 0
     f30:	01 97       	sbiw	r24, 0x01	; 1
     f32:	92 60       	ori	r25, 0x02	; 2
     f34:	90 93 05 05 	sts	0x0505, r25
     f38:	80 93 04 05 	sts	0x0504, r24
     f3c:	10 92 07 05 	sts	0x0507, r1
     f40:	10 92 06 05 	sts	0x0506, r1
     f44:	89 e0       	ldi	r24, 0x09	; 9
     f46:	90 e0       	ldi	r25, 0x00	; 0
     f48:	90 93 09 05 	sts	0x0509, r25
     f4c:	80 93 08 05 	sts	0x0508, r24
			 *  \param[in] PipeNumber  Index of the pipe to select.
			 */
			static inline void Pipe_SelectPipe(const uint8_t PipeNumber) ATTR_ALWAYS_INLINE;
			static inline void Pipe_SelectPipe(const uint8_t PipeNumber)
			{
				UPNUM = PipeNumber;
     f50:	10 92 a7 00 	sts	0x00A7, r1
			.wLength       = sizeof(USB_Descriptor_Configuration_Header_t),
		};

	Pipe_SelectPipe(PIPE_CONTROLPIPE);

	if ((ErrorCode = USB_Host_SendControlRequest(ConfigHeader)) != HOST_SENDCONTROL_Successful)
     f54:	ce 01       	movw	r24, r28
     f56:	01 96       	adiw	r24, 0x01	; 1
     f58:	55 d0       	rcall	.+170    	; 0x1004 <USB_Host_SendControlRequest>
     f5a:	28 2f       	mov	r18, r24
     f5c:	88 23       	and	r24, r24
     f5e:	c1 f4       	brne	.+48     	; 0xf90 <USB_Host_GetDeviceConfigDescriptor+0x94>
	  return ErrorCode;

	*ConfigSizePtr = le16_to_cpu(DESCRIPTOR_PCAST(ConfigHeader, USB_Descriptor_Configuration_Header_t)->TotalConfigurationSize);
     f60:	8b 81       	ldd	r24, Y+3	; 0x03
     f62:	9c 81       	ldd	r25, Y+4	; 0x04
     f64:	f6 01       	movw	r30, r12
     f66:	91 83       	std	Z+1, r25	; 0x01
     f68:	80 83       	st	Z, r24

	if (*ConfigSizePtr > BufferSize)
     f6a:	e8 16       	cp	r14, r24
     f6c:	f9 06       	cpc	r15, r25
     f6e:	10 f4       	brcc	.+4      	; 0xf74 <USB_Host_GetDeviceConfigDescriptor+0x78>
     f70:	25 e0       	ldi	r18, 0x05	; 5
     f72:	0e c0       	rjmp	.+28     	; 0xf90 <USB_Host_GetDeviceConfigDescriptor+0x94>
	  return HOST_GETCONFIG_BuffOverflow;

	USB_ControlRequest.wLength = *ConfigSizePtr;
     f74:	90 93 09 05 	sts	0x0509, r25
     f78:	80 93 08 05 	sts	0x0508, r24

	if ((ErrorCode = USB_Host_SendControlRequest(BufferPtr)) != HOST_SENDCONTROL_Successful)
     f7c:	c8 01       	movw	r24, r16
     f7e:	42 d0       	rcall	.+132    	; 0x1004 <USB_Host_SendControlRequest>
     f80:	28 2f       	mov	r18, r24
     f82:	88 23       	and	r24, r24
     f84:	29 f4       	brne	.+10     	; 0xf90 <USB_Host_GetDeviceConfigDescriptor+0x94>
	  return ErrorCode;

	if (DESCRIPTOR_TYPE(BufferPtr) != DTYPE_Configuration)
     f86:	f8 01       	movw	r30, r16
     f88:	81 81       	ldd	r24, Z+1	; 0x01
     f8a:	82 30       	cpi	r24, 0x02	; 2
     f8c:	09 f0       	breq	.+2      	; 0xf90 <USB_Host_GetDeviceConfigDescriptor+0x94>
     f8e:	26 e0       	ldi	r18, 0x06	; 6
	  return HOST_GETCONFIG_InvalidData;

	return HOST_GETCONFIG_Successful;
}
     f90:	82 2f       	mov	r24, r18
     f92:	29 96       	adiw	r28, 0x09	; 9
     f94:	0f b6       	in	r0, 0x3f	; 63
     f96:	f8 94       	cli
     f98:	de bf       	out	0x3e, r29	; 62
     f9a:	0f be       	out	0x3f, r0	; 63
     f9c:	cd bf       	out	0x3d, r28	; 61
     f9e:	cf 91       	pop	r28
     fa0:	df 91       	pop	r29
     fa2:	1f 91       	pop	r17
     fa4:	0f 91       	pop	r16
     fa6:	ff 90       	pop	r15
     fa8:	ef 90       	pop	r14
     faa:	df 90       	pop	r13
     fac:	cf 90       	pop	r12
     fae:	08 95       	ret

00000fb0 <USB_Event_Stub>:
#include "Events.h"

void USB_Event_Stub(void)
{

}
     fb0:	08 95       	ret

00000fb2 <USB_Host_WaitForIOS>:

	return ReturnStatus;
}

static uint8_t USB_Host_WaitForIOS(const uint8_t WaitType)
{
     fb2:	1f 93       	push	r17
     fb4:	cf 93       	push	r28
     fb6:	df 93       	push	r29
     fb8:	18 2f       	mov	r17, r24
     fba:	c8 ee       	ldi	r28, 0xE8	; 232
     fbc:	d3 e0       	ldi	r29, 0x03	; 3
     fbe:	09 c0       	rjmp	.+18     	; 0xfd2 <USB_Host_WaitForIOS+0x20>
	         ((WaitType == USB_HOST_WAITFOR_InReceived) && Pipe_IsINReceived()) ||
	         ((WaitType == USB_HOST_WAITFOR_OutReady)   && Pipe_IsOUTReady())))
	{
		uint8_t ErrorCode;

		if ((ErrorCode = USB_Host_WaitMS(1)) != HOST_WAITERROR_Successful)
     fc0:	81 e0       	ldi	r24, 0x01	; 1
     fc2:	65 db       	rcall	.-2358   	; 0x68e <USB_Host_WaitMS>
     fc4:	88 23       	and	r24, r24
     fc6:	d1 f4       	brne	.+52     	; 0xffc <USB_Host_WaitForIOS+0x4a>
		  return ErrorCode;

		if (!(TimeoutCounter--))
     fc8:	20 97       	sbiw	r28, 0x00	; 0
     fca:	11 f4       	brne	.+4      	; 0xfd0 <USB_Host_WaitForIOS+0x1e>
     fcc:	84 e0       	ldi	r24, 0x04	; 4
     fce:	16 c0       	rjmp	.+44     	; 0xffc <USB_Host_WaitForIOS+0x4a>
     fd0:	21 97       	sbiw	r28, 0x01	; 1
	uint8_t  TimeoutCounter = USB_HOST_TIMEOUT_MS;
	#else
	uint16_t TimeoutCounter = USB_HOST_TIMEOUT_MS;
	#endif

	while (!(((WaitType == USB_HOST_WAITFOR_SetupSent)  && Pipe_IsSETUPSent())  ||
     fd2:	11 23       	and	r17, r17
     fd4:	29 f4       	brne	.+10     	; 0xfe0 <USB_Host_WaitForIOS+0x2e>
			 *  \return Boolean \c true if the current pipe is ready for a SETUP packet, \c false otherwise.
			 */
			static inline bool Pipe_IsSETUPSent(void) ATTR_WARN_UNUSED_RESULT ATTR_ALWAYS_INLINE;
			static inline bool Pipe_IsSETUPSent(void)
			{
				return ((UPINTX & (1 << TXSTPI)) ? true : false);
     fd6:	80 91 a6 00 	lds	r24, 0x00A6
     fda:	83 ff       	sbrs	r24, 3
     fdc:	f1 cf       	rjmp	.-30     	; 0xfc0 <USB_Host_WaitForIOS+0xe>
     fde:	0d c0       	rjmp	.+26     	; 0xffa <USB_Host_WaitForIOS+0x48>
     fe0:	11 30       	cpi	r17, 0x01	; 1
     fe2:	29 f4       	brne	.+10     	; 0xfee <USB_Host_WaitForIOS+0x3c>
			 *  \return Boolean \c true if the current pipe has received an IN packet, \c false otherwise.
			 */
			static inline bool Pipe_IsINReceived(void) ATTR_WARN_UNUSED_RESULT ATTR_ALWAYS_INLINE;
			static inline bool Pipe_IsINReceived(void)
			{
				return ((UPINTX & (1 << RXINI)) ? true : false);
     fe4:	80 91 a6 00 	lds	r24, 0x00A6
     fe8:	80 ff       	sbrs	r24, 0
     fea:	ea cf       	rjmp	.-44     	; 0xfc0 <USB_Host_WaitForIOS+0xe>
     fec:	06 c0       	rjmp	.+12     	; 0xffa <USB_Host_WaitForIOS+0x48>
     fee:	12 30       	cpi	r17, 0x02	; 2
     ff0:	39 f7       	brne	.-50     	; 0xfc0 <USB_Host_WaitForIOS+0xe>
			 *  \return Boolean \c true if the current pipe is ready for an OUT packet, \c false otherwise.
			 */
			static inline bool Pipe_IsOUTReady(void) ATTR_WARN_UNUSED_RESULT ATTR_ALWAYS_INLINE;
			static inline bool Pipe_IsOUTReady(void)
			{
				return ((UPINTX & (1 << TXOUTI)) ? true : false);
     ff2:	80 91 a6 00 	lds	r24, 0x00A6
     ff6:	82 ff       	sbrs	r24, 2
     ff8:	e3 cf       	rjmp	.-58     	; 0xfc0 <USB_Host_WaitForIOS+0xe>
     ffa:	80 e0       	ldi	r24, 0x00	; 0
		if (!(TimeoutCounter--))
		  return HOST_SENDCONTROL_SoftwareTimeOut;
	}

	return HOST_SENDCONTROL_Successful;
}
     ffc:	df 91       	pop	r29
     ffe:	cf 91       	pop	r28
    1000:	1f 91       	pop	r17
    1002:	08 95       	ret

00001004 <USB_Host_SendControlRequest>:
#include "HostStandardReq.h"

uint8_t USB_Host_ConfigurationNumber;

uint8_t USB_Host_SendControlRequest(void* const BufferPtr)
{
    1004:	ff 92       	push	r15
    1006:	0f 93       	push	r16
    1008:	1f 93       	push	r17
    100a:	cf 93       	push	r28
    100c:	df 93       	push	r29
    100e:	18 2f       	mov	r17, r24
    1010:	09 2f       	mov	r16, r25
			 *  \return Boolean \c true if the bus is currently suspended, \c false otherwise.
			 */
			static inline bool USB_Host_IsBusSuspended(void) ATTR_WARN_UNUSED_RESULT ATTR_ALWAYS_INLINE;
			static inline bool USB_Host_IsBusSuspended(void)
			{
				return ((UHCON & (1 << SOFEN)) ? false : true);
    1012:	f0 90 9e 00 	lds	r15, 0x009E
	uint8_t* DataStream   = (uint8_t*)BufferPtr;
	bool     BusSuspended = USB_Host_IsBusSuspended();
	uint8_t  ReturnStatus = HOST_SENDCONTROL_Successful;
	uint16_t DataLen      = USB_ControlRequest.wLength;
    1016:	c0 91 08 05 	lds	r28, 0x0508
    101a:	d0 91 09 05 	lds	r29, 0x0509
			 *  host and attached device may occur.
			 */
			static inline void USB_Host_ResumeBus(void) ATTR_ALWAYS_INLINE;
			static inline void USB_Host_ResumeBus(void)
			{
				UHCON |=  (1 << SOFEN);
    101e:	80 91 9e 00 	lds	r24, 0x009E
    1022:	81 60       	ori	r24, 0x01	; 1
    1024:	80 93 9e 00 	sts	0x009E, r24

	USB_Host_ResumeBus();

	if ((ReturnStatus = USB_Host_WaitMS(1)) != HOST_WAITERROR_Successful)
    1028:	81 e0       	ldi	r24, 0x01	; 1
    102a:	31 db       	rcall	.-2462   	; 0x68e <USB_Host_WaitMS>
    102c:	98 2f       	mov	r25, r24
    102e:	88 23       	and	r24, r24
    1030:	09 f0       	breq	.+2      	; 0x1034 <USB_Host_SendControlRequest+0x30>
    1032:	d7 c0       	rjmp	.+430    	; 0x11e2 <USB_Host_SendControlRequest+0x1de>
			 *  \param[in] Token  New pipe token to set the selected pipe to, as a \c PIPE_TOKEN_* mask.
			 */
			static inline void Pipe_SetPipeToken(const uint8_t Token) ATTR_ALWAYS_INLINE;
			static inline void Pipe_SetPipeToken(const uint8_t Token)
			{
				UPCFG0X = ((UPCFG0X & ~(0x03 << PTOKEN0)) | Token);
    1034:	80 91 aa 00 	lds	r24, 0x00AA
    1038:	8f 7c       	andi	r24, 0xCF	; 207
    103a:	80 93 aa 00 	sts	0x00AA, r24

			/** Clears the error flags for the currently selected pipe. */
			static inline void Pipe_ClearError(void) ATTR_ALWAYS_INLINE;
			static inline void Pipe_ClearError(void)
			{
				UPERRX = 0;
    103e:	10 92 f5 00 	sts	0x00F5, r1
				UPINTX &= ~(1 << PERRI);
    1042:	80 91 a6 00 	lds	r24, 0x00A6
    1046:	8f 7e       	andi	r24, 0xEF	; 239
    1048:	80 93 a6 00 	sts	0x00A6, r24

			/** Unfreezes the selected pipe, allowing it to communicate with an attached device. */
			static inline void Pipe_Unfreeze(void) ATTR_ALWAYS_INLINE;
			static inline void Pipe_Unfreeze(void)
			{
				UPCONX &= ~(1 << PFREEZE);
    104c:	80 91 a9 00 	lds	r24, 0x00A9
    1050:	8f 7b       	andi	r24, 0xBF	; 191
    1052:	80 93 a9 00 	sts	0x00A9, r24
    1056:	e2 e0       	ldi	r30, 0x02	; 2
    1058:	f5 e0       	ldi	r31, 0x05	; 5
	Pipe_Write_16_LE(USB_ControlRequest.wLength);
	#else
	uint8_t* HeaderStream = (uint8_t*)&USB_ControlRequest;

	for (uint8_t HeaderByte = 0; HeaderByte < sizeof(USB_Request_Header_t); HeaderByte++)
	  Pipe_Write_8(*(HeaderStream++));	
    105a:	81 91       	ld	r24, Z+
			 *  \param[in] Data  Data to write into the the currently selected pipe's FIFO buffer.
			 */
			static inline void Pipe_Write_8(const uint8_t Data) ATTR_ALWAYS_INLINE;
			static inline void Pipe_Write_8(const uint8_t Data)
			{
				UPDATX = Data;
    105c:	80 93 af 00 	sts	0x00AF, r24
	Pipe_Write_16_LE(USB_ControlRequest.wIndex);
	Pipe_Write_16_LE(USB_ControlRequest.wLength);
	#else
	uint8_t* HeaderStream = (uint8_t*)&USB_ControlRequest;

	for (uint8_t HeaderByte = 0; HeaderByte < sizeof(USB_Request_Header_t); HeaderByte++)
    1060:	85 e0       	ldi	r24, 0x05	; 5
    1062:	ea 30       	cpi	r30, 0x0A	; 10
    1064:	f8 07       	cpc	r31, r24
    1066:	c9 f7       	brne	.-14     	; 0x105a <USB_Host_SendControlRequest+0x56>
			 *  \ingroup Group_PipePacketManagement_AVR8
			 */
			static inline void Pipe_ClearSETUP(void) ATTR_ALWAYS_INLINE;
			static inline void Pipe_ClearSETUP(void)
			{
				UPINTX &= ~((1 << TXSTPI) | (1 << FIFOCON));
    1068:	80 91 a6 00 	lds	r24, 0x00A6
    106c:	87 77       	andi	r24, 0x77	; 119
    106e:	80 93 a6 00 	sts	0x00A6, r24
	  Pipe_Write_8(*(HeaderStream++));	
	#endif
	
	Pipe_ClearSETUP();

	if ((ReturnStatus = USB_Host_WaitForIOS(USB_HOST_WAITFOR_SetupSent)) != HOST_SENDCONTROL_Successful)
    1072:	80 e0       	ldi	r24, 0x00	; 0
    1074:	9e df       	rcall	.-196    	; 0xfb2 <USB_Host_WaitForIOS>
    1076:	98 2f       	mov	r25, r24
    1078:	88 23       	and	r24, r24
    107a:	09 f0       	breq	.+2      	; 0x107e <USB_Host_SendControlRequest+0x7a>
    107c:	b2 c0       	rjmp	.+356    	; 0x11e2 <USB_Host_SendControlRequest+0x1de>

			/** Freezes the selected pipe, preventing it from communicating with an attached device. */
			static inline void Pipe_Freeze(void) ATTR_ALWAYS_INLINE;
			static inline void Pipe_Freeze(void)
			{
				UPCONX |= (1 << PFREEZE);
    107e:	80 91 a9 00 	lds	r24, 0x00A9
    1082:	80 64       	ori	r24, 0x40	; 64
    1084:	80 93 a9 00 	sts	0x00A9, r24
	  goto End_Of_Control_Send;

	Pipe_Freeze();

	if ((ReturnStatus = USB_Host_WaitMS(1)) != HOST_WAITERROR_Successful)
    1088:	81 e0       	ldi	r24, 0x01	; 1
    108a:	01 db       	rcall	.-2558   	; 0x68e <USB_Host_WaitMS>
    108c:	98 2f       	mov	r25, r24
    108e:	88 23       	and	r24, r24
    1090:	09 f0       	breq	.+2      	; 0x1094 <USB_Host_SendControlRequest+0x90>
    1092:	a7 c0       	rjmp	.+334    	; 0x11e2 <USB_Host_SendControlRequest+0x1de>

uint8_t USB_Host_ConfigurationNumber;

uint8_t USB_Host_SendControlRequest(void* const BufferPtr)
{
	uint8_t* DataStream   = (uint8_t*)BufferPtr;
    1094:	21 2f       	mov	r18, r17
    1096:	30 2f       	mov	r19, r16
    1098:	c9 01       	movw	r24, r18
    109a:	8c 01       	movw	r16, r24
	Pipe_Freeze();

	if ((ReturnStatus = USB_Host_WaitMS(1)) != HOST_WAITERROR_Successful)
	  goto End_Of_Control_Send;

	if ((USB_ControlRequest.bmRequestType & CONTROL_REQTYPE_DIRECTION) == REQDIR_DEVICETOHOST)
    109c:	80 91 02 05 	lds	r24, 0x0502
    10a0:	87 ff       	sbrs	r24, 7
    10a2:	52 c0       	rjmp	.+164    	; 0x1148 <USB_Host_SendControlRequest+0x144>
			 *  \param[in] Token  New pipe token to set the selected pipe to, as a \c PIPE_TOKEN_* mask.
			 */
			static inline void Pipe_SetPipeToken(const uint8_t Token) ATTR_ALWAYS_INLINE;
			static inline void Pipe_SetPipeToken(const uint8_t Token)
			{
				UPCFG0X = ((UPCFG0X & ~(0x03 << PTOKEN0)) | Token);
    10a4:	80 91 aa 00 	lds	r24, 0x00AA
    10a8:	8f 7c       	andi	r24, 0xCF	; 207
    10aa:	80 61       	ori	r24, 0x10	; 16
    10ac:	80 93 aa 00 	sts	0x00AA, r24
	{
		Pipe_SetPipeToken(PIPE_TOKEN_IN);

		if (DataStream != NULL)
    10b0:	01 15       	cp	r16, r1
    10b2:	11 05       	cpc	r17, r1
    10b4:	69 f5       	brne	.+90     	; 0x1110 <USB_Host_SendControlRequest+0x10c>
    10b6:	2e c0       	rjmp	.+92     	; 0x1114 <USB_Host_SendControlRequest+0x110>

			/** Unfreezes the selected pipe, allowing it to communicate with an attached device. */
			static inline void Pipe_Unfreeze(void) ATTR_ALWAYS_INLINE;
			static inline void Pipe_Unfreeze(void)
			{
				UPCONX &= ~(1 << PFREEZE);
    10b8:	80 91 a9 00 	lds	r24, 0x00A9
    10bc:	8f 7b       	andi	r24, 0xBF	; 191
    10be:	80 93 a9 00 	sts	0x00A9, r24
		{
			while (DataLen)
			{
				Pipe_Unfreeze();

				if ((ReturnStatus = USB_Host_WaitForIOS(USB_HOST_WAITFOR_InReceived)) != HOST_SENDCONTROL_Successful)
    10c2:	81 e0       	ldi	r24, 0x01	; 1
    10c4:	76 df       	rcall	.-276    	; 0xfb2 <USB_Host_WaitForIOS>
    10c6:	98 2f       	mov	r25, r24
    10c8:	88 23       	and	r24, r24
    10ca:	09 f0       	breq	.+2      	; 0x10ce <USB_Host_SendControlRequest+0xca>
    10cc:	8a c0       	rjmp	.+276    	; 0x11e2 <USB_Host_SendControlRequest+0x1de>
			 *  \return Total number of bytes in the currently selected pipe's FIFO buffer.
			 */
			static inline uint16_t Pipe_BytesInPipe(void) ATTR_WARN_UNUSED_RESULT ATTR_ALWAYS_INLINE;
			static inline uint16_t Pipe_BytesInPipe(void)
			{
				return UPBCX;
    10ce:	80 91 f6 00 	lds	r24, 0x00F6
    10d2:	90 91 f7 00 	lds	r25, 0x00F7
				  goto End_Of_Control_Send;

				if (!(Pipe_BytesInPipe()))
    10d6:	89 2b       	or	r24, r25
    10d8:	49 f4       	brne	.+18     	; 0x10ec <USB_Host_SendControlRequest+0xe8>
    10da:	c0 e0       	ldi	r28, 0x00	; 0
    10dc:	d0 e0       	ldi	r29, 0x00	; 0
    10de:	06 c0       	rjmp	.+12     	; 0x10ec <USB_Host_SendControlRequest+0xe8>
			 *  \return Next byte in the currently selected pipe's FIFO buffer.
			 */
			static inline uint8_t Pipe_Read_8(void) ATTR_WARN_UNUSED_RESULT ATTR_ALWAYS_INLINE;
			static inline uint8_t Pipe_Read_8(void)
			{
				return UPDATX;
    10e0:	80 91 af 00 	lds	r24, 0x00AF
				  DataLen = 0;

				while (Pipe_BytesInPipe() && DataLen)
				{
					*(DataStream++) = Pipe_Read_8();
    10e4:	f8 01       	movw	r30, r16
    10e6:	81 93       	st	Z+, r24
    10e8:	8f 01       	movw	r16, r30
					DataLen--;
    10ea:	21 97       	sbiw	r28, 0x01	; 1
			 *  \return Total number of bytes in the currently selected pipe's FIFO buffer.
			 */
			static inline uint16_t Pipe_BytesInPipe(void) ATTR_WARN_UNUSED_RESULT ATTR_ALWAYS_INLINE;
			static inline uint16_t Pipe_BytesInPipe(void)
			{
				return UPBCX;
    10ec:	80 91 f6 00 	lds	r24, 0x00F6
    10f0:	90 91 f7 00 	lds	r25, 0x00F7
				  goto End_Of_Control_Send;

				if (!(Pipe_BytesInPipe()))
				  DataLen = 0;

				while (Pipe_BytesInPipe() && DataLen)
    10f4:	89 2b       	or	r24, r25
    10f6:	11 f0       	breq	.+4      	; 0x10fc <USB_Host_SendControlRequest+0xf8>
    10f8:	20 97       	sbiw	r28, 0x00	; 0
    10fa:	91 f7       	brne	.-28     	; 0x10e0 <USB_Host_SendControlRequest+0xdc>

			/** Freezes the selected pipe, preventing it from communicating with an attached device. */
			static inline void Pipe_Freeze(void) ATTR_ALWAYS_INLINE;
			static inline void Pipe_Freeze(void)
			{
				UPCONX |= (1 << PFREEZE);
    10fc:	80 91 a9 00 	lds	r24, 0x00A9
    1100:	80 64       	ori	r24, 0x40	; 64
    1102:	80 93 a9 00 	sts	0x00A9, r24
			 *  \ingroup Group_PipePacketManagement_AVR8
			 */
			static inline void Pipe_ClearIN(void) ATTR_ALWAYS_INLINE;
			static inline void Pipe_ClearIN(void)
			{
				UPINTX &= ~((1 << RXINI) | (1 << FIFOCON));
    1106:	80 91 a6 00 	lds	r24, 0x00A6
    110a:	8e 77       	andi	r24, 0x7E	; 126
    110c:	80 93 a6 00 	sts	0x00A6, r24
	{
		Pipe_SetPipeToken(PIPE_TOKEN_IN);

		if (DataStream != NULL)
		{
			while (DataLen)
    1110:	20 97       	sbiw	r28, 0x00	; 0
    1112:	91 f6       	brne	.-92     	; 0x10b8 <USB_Host_SendControlRequest+0xb4>
			 *  \param[in] Token  New pipe token to set the selected pipe to, as a \c PIPE_TOKEN_* mask.
			 */
			static inline void Pipe_SetPipeToken(const uint8_t Token) ATTR_ALWAYS_INLINE;
			static inline void Pipe_SetPipeToken(const uint8_t Token)
			{
				UPCFG0X = ((UPCFG0X & ~(0x03 << PTOKEN0)) | Token);
    1114:	80 91 aa 00 	lds	r24, 0x00AA
    1118:	8f 7c       	andi	r24, 0xCF	; 207
    111a:	80 62       	ori	r24, 0x20	; 32
    111c:	80 93 aa 00 	sts	0x00AA, r24

			/** Unfreezes the selected pipe, allowing it to communicate with an attached device. */
			static inline void Pipe_Unfreeze(void) ATTR_ALWAYS_INLINE;
			static inline void Pipe_Unfreeze(void)
			{
				UPCONX &= ~(1 << PFREEZE);
    1120:	80 91 a9 00 	lds	r24, 0x00A9
    1124:	8f 7b       	andi	r24, 0xBF	; 191
    1126:	80 93 a9 00 	sts	0x00A9, r24
		}

		Pipe_SetPipeToken(PIPE_TOKEN_OUT);
		Pipe_Unfreeze();

		if ((ReturnStatus = USB_Host_WaitForIOS(USB_HOST_WAITFOR_OutReady)) != HOST_SENDCONTROL_Successful)
    112a:	82 e0       	ldi	r24, 0x02	; 2
    112c:	42 df       	rcall	.-380    	; 0xfb2 <USB_Host_WaitForIOS>
    112e:	98 2f       	mov	r25, r24
    1130:	88 23       	and	r24, r24
    1132:	09 f0       	breq	.+2      	; 0x1136 <USB_Host_SendControlRequest+0x132>
    1134:	56 c0       	rjmp	.+172    	; 0x11e2 <USB_Host_SendControlRequest+0x1de>
			 *  \ingroup Group_PipePacketManagement_AVR8
			 */
			static inline void Pipe_ClearOUT(void) ATTR_ALWAYS_INLINE;
			static inline void Pipe_ClearOUT(void)
			{
				UPINTX &= ~((1 << TXOUTI) | (1 << FIFOCON));
    1136:	80 91 a6 00 	lds	r24, 0x00A6
    113a:	8b 77       	andi	r24, 0x7B	; 123
    113c:	80 93 a6 00 	sts	0x00A6, r24
		  goto End_Of_Control_Send;

		Pipe_ClearOUT();

		if ((ReturnStatus = USB_Host_WaitForIOS(USB_HOST_WAITFOR_OutReady)) != HOST_SENDCONTROL_Successful)
    1140:	82 e0       	ldi	r24, 0x02	; 2
    1142:	37 df       	rcall	.-402    	; 0xfb2 <USB_Host_WaitForIOS>
    1144:	98 2f       	mov	r25, r24
    1146:	4d c0       	rjmp	.+154    	; 0x11e2 <USB_Host_SendControlRequest+0x1de>
		  goto End_Of_Control_Send;
	}
	else
	{
		if (DataStream != NULL)
    1148:	01 15       	cp	r16, r1
    114a:	11 05       	cpc	r17, r1
    114c:	a9 f1       	breq	.+106    	; 0x11b8 <USB_Host_SendControlRequest+0x1b4>
			 *  \param[in] Token  New pipe token to set the selected pipe to, as a \c PIPE_TOKEN_* mask.
			 */
			static inline void Pipe_SetPipeToken(const uint8_t Token) ATTR_ALWAYS_INLINE;
			static inline void Pipe_SetPipeToken(const uint8_t Token)
			{
				UPCFG0X = ((UPCFG0X & ~(0x03 << PTOKEN0)) | Token);
    114e:	80 91 aa 00 	lds	r24, 0x00AA
    1152:	8f 7c       	andi	r24, 0xCF	; 207
    1154:	80 62       	ori	r24, 0x20	; 32
    1156:	80 93 aa 00 	sts	0x00AA, r24

			/** Unfreezes the selected pipe, allowing it to communicate with an attached device. */
			static inline void Pipe_Unfreeze(void) ATTR_ALWAYS_INLINE;
			static inline void Pipe_Unfreeze(void)
			{
				UPCONX &= ~(1 << PFREEZE);
    115a:	80 91 a9 00 	lds	r24, 0x00A9
    115e:	8f 7b       	andi	r24, 0xBF	; 191
    1160:	80 93 a9 00 	sts	0x00A9, r24
    1164:	1d c0       	rjmp	.+58     	; 0x11a0 <USB_Host_SendControlRequest+0x19c>
			Pipe_SetPipeToken(PIPE_TOKEN_OUT);
			Pipe_Unfreeze();

			while (DataLen)
			{
				if ((ReturnStatus = USB_Host_WaitForIOS(USB_HOST_WAITFOR_OutReady)) != HOST_SENDCONTROL_Successful)
    1166:	82 e0       	ldi	r24, 0x02	; 2
    1168:	24 df       	rcall	.-440    	; 0xfb2 <USB_Host_WaitForIOS>
    116a:	98 2f       	mov	r25, r24
    116c:	88 23       	and	r24, r24
    116e:	c9 f5       	brne	.+114    	; 0x11e2 <USB_Host_SendControlRequest+0x1de>
				  goto End_Of_Control_Send;

				while (DataLen && (Pipe_BytesInPipe() < USB_Host_ControlPipeSize))
    1170:	80 91 23 01 	lds	r24, 0x0123
    1174:	28 2f       	mov	r18, r24
    1176:	30 e0       	ldi	r19, 0x00	; 0
    1178:	07 c0       	rjmp	.+14     	; 0x1188 <USB_Host_SendControlRequest+0x184>
				{
					Pipe_Write_8(*(DataStream++));
    117a:	f8 01       	movw	r30, r16
    117c:	81 91       	ld	r24, Z+
    117e:	8f 01       	movw	r16, r30
			 *  \param[in] Data  Data to write into the the currently selected pipe's FIFO buffer.
			 */
			static inline void Pipe_Write_8(const uint8_t Data) ATTR_ALWAYS_INLINE;
			static inline void Pipe_Write_8(const uint8_t Data)
			{
				UPDATX = Data;
    1180:	80 93 af 00 	sts	0x00AF, r24
					DataLen--;
    1184:	21 97       	sbiw	r28, 0x01	; 1
			while (DataLen)
			{
				if ((ReturnStatus = USB_Host_WaitForIOS(USB_HOST_WAITFOR_OutReady)) != HOST_SENDCONTROL_Successful)
				  goto End_Of_Control_Send;

				while (DataLen && (Pipe_BytesInPipe() < USB_Host_ControlPipeSize))
    1186:	39 f0       	breq	.+14     	; 0x1196 <USB_Host_SendControlRequest+0x192>
			 *  \return Total number of bytes in the currently selected pipe's FIFO buffer.
			 */
			static inline uint16_t Pipe_BytesInPipe(void) ATTR_WARN_UNUSED_RESULT ATTR_ALWAYS_INLINE;
			static inline uint16_t Pipe_BytesInPipe(void)
			{
				return UPBCX;
    1188:	80 91 f6 00 	lds	r24, 0x00F6
    118c:	90 91 f7 00 	lds	r25, 0x00F7
    1190:	82 17       	cp	r24, r18
    1192:	93 07       	cpc	r25, r19
    1194:	90 f3       	brcs	.-28     	; 0x117a <USB_Host_SendControlRequest+0x176>
			 *  \ingroup Group_PipePacketManagement_AVR8
			 */
			static inline void Pipe_ClearOUT(void) ATTR_ALWAYS_INLINE;
			static inline void Pipe_ClearOUT(void)
			{
				UPINTX &= ~((1 << TXOUTI) | (1 << FIFOCON));
    1196:	80 91 a6 00 	lds	r24, 0x00A6
    119a:	8b 77       	andi	r24, 0x7B	; 123
    119c:	80 93 a6 00 	sts	0x00A6, r24
		if (DataStream != NULL)
		{
			Pipe_SetPipeToken(PIPE_TOKEN_OUT);
			Pipe_Unfreeze();

			while (DataLen)
    11a0:	20 97       	sbiw	r28, 0x00	; 0
    11a2:	09 f7       	brne	.-62     	; 0x1166 <USB_Host_SendControlRequest+0x162>
				}

				Pipe_ClearOUT();
			}

			if ((ReturnStatus = USB_Host_WaitForIOS(USB_HOST_WAITFOR_OutReady)) != HOST_SENDCONTROL_Successful)
    11a4:	82 e0       	ldi	r24, 0x02	; 2
    11a6:	05 df       	rcall	.-502    	; 0xfb2 <USB_Host_WaitForIOS>
    11a8:	98 2f       	mov	r25, r24
    11aa:	88 23       	and	r24, r24
    11ac:	d1 f4       	brne	.+52     	; 0x11e2 <USB_Host_SendControlRequest+0x1de>

			/** Freezes the selected pipe, preventing it from communicating with an attached device. */
			static inline void Pipe_Freeze(void) ATTR_ALWAYS_INLINE;
			static inline void Pipe_Freeze(void)
			{
				UPCONX |= (1 << PFREEZE);
    11ae:	80 91 a9 00 	lds	r24, 0x00A9
    11b2:	80 64       	ori	r24, 0x40	; 64
    11b4:	80 93 a9 00 	sts	0x00A9, r24
			 *  \param[in] Token  New pipe token to set the selected pipe to, as a \c PIPE_TOKEN_* mask.
			 */
			static inline void Pipe_SetPipeToken(const uint8_t Token) ATTR_ALWAYS_INLINE;
			static inline void Pipe_SetPipeToken(const uint8_t Token)
			{
				UPCFG0X = ((UPCFG0X & ~(0x03 << PTOKEN0)) | Token);
    11b8:	80 91 aa 00 	lds	r24, 0x00AA
    11bc:	8f 7c       	andi	r24, 0xCF	; 207
    11be:	80 61       	ori	r24, 0x10	; 16
    11c0:	80 93 aa 00 	sts	0x00AA, r24

			/** Unfreezes the selected pipe, allowing it to communicate with an attached device. */
			static inline void Pipe_Unfreeze(void) ATTR_ALWAYS_INLINE;
			static inline void Pipe_Unfreeze(void)
			{
				UPCONX &= ~(1 << PFREEZE);
    11c4:	80 91 a9 00 	lds	r24, 0x00A9
    11c8:	8f 7b       	andi	r24, 0xBF	; 191
    11ca:	80 93 a9 00 	sts	0x00A9, r24
		}

		Pipe_SetPipeToken(PIPE_TOKEN_IN);
		Pipe_Unfreeze();

		if ((ReturnStatus = USB_Host_WaitForIOS(USB_HOST_WAITFOR_InReceived)) != HOST_SENDCONTROL_Successful)
    11ce:	81 e0       	ldi	r24, 0x01	; 1
    11d0:	f0 de       	rcall	.-544    	; 0xfb2 <USB_Host_WaitForIOS>
    11d2:	98 2f       	mov	r25, r24
    11d4:	88 23       	and	r24, r24
    11d6:	29 f4       	brne	.+10     	; 0x11e2 <USB_Host_SendControlRequest+0x1de>
			 *  \ingroup Group_PipePacketManagement_AVR8
			 */
			static inline void Pipe_ClearIN(void) ATTR_ALWAYS_INLINE;
			static inline void Pipe_ClearIN(void)
			{
				UPINTX &= ~((1 << RXINI) | (1 << FIFOCON));
    11d8:	80 91 a6 00 	lds	r24, 0x00A6
    11dc:	8e 77       	andi	r24, 0x7E	; 126
    11de:	80 93 a6 00 	sts	0x00A6, r24

			/** Freezes the selected pipe, preventing it from communicating with an attached device. */
			static inline void Pipe_Freeze(void) ATTR_ALWAYS_INLINE;
			static inline void Pipe_Freeze(void)
			{
				UPCONX |= (1 << PFREEZE);
    11e2:	80 91 a9 00 	lds	r24, 0x00A9
    11e6:	80 64       	ori	r24, 0x40	; 64
    11e8:	80 93 a9 00 	sts	0x00A9, r24
	}

End_Of_Control_Send:
	Pipe_Freeze();

	if (BusSuspended)
    11ec:	f0 fc       	sbrc	r15, 0
    11ee:	05 c0       	rjmp	.+10     	; 0x11fa <USB_Host_SendControlRequest+0x1f6>
			 *        some events (such as device disconnections) will not fire until the bus is resumed.
			 */
			static inline void USB_Host_SuspendBus(void) ATTR_ALWAYS_INLINE;
			static inline void USB_Host_SuspendBus(void)
			{
				UHCON &= ~(1 << SOFEN);
    11f0:	80 91 9e 00 	lds	r24, 0x009E
    11f4:	8e 7f       	andi	r24, 0xFE	; 254
    11f6:	80 93 9e 00 	sts	0x009E, r24
			 *  \param[in] PipeNumber  Index of the pipe to reset.
			 */
			static inline void Pipe_ResetPipe(const uint8_t PipeNumber) ATTR_ALWAYS_INLINE;
			static inline void Pipe_ResetPipe(const uint8_t PipeNumber)
			{
				UPRST = (1 << PipeNumber);
    11fa:	81 e0       	ldi	r24, 0x01	; 1
    11fc:	80 93 a8 00 	sts	0x00A8, r24
				UPRST = 0;
    1200:	10 92 a8 00 	sts	0x00A8, r1
	  USB_Host_SuspendBus();

	Pipe_ResetPipe(PIPE_CONTROLPIPE);

	return ReturnStatus;
}
    1204:	89 2f       	mov	r24, r25
    1206:	df 91       	pop	r29
    1208:	cf 91       	pop	r28
    120a:	1f 91       	pop	r17
    120c:	0f 91       	pop	r16
    120e:	ff 90       	pop	r15
    1210:	08 95       	ret

00001212 <USB_Host_SetDeviceConfiguration>:

	return HOST_SENDCONTROL_Successful;
}

uint8_t USB_Host_SetDeviceConfiguration(const uint8_t ConfigNumber)
{
    1212:	1f 93       	push	r17
    1214:	18 2f       	mov	r17, r24
	uint8_t ErrorCode;

	USB_ControlRequest = (USB_Request_Header_t)
    1216:	10 92 02 05 	sts	0x0502, r1
    121a:	89 e0       	ldi	r24, 0x09	; 9
    121c:	80 93 03 05 	sts	0x0503, r24
    1220:	10 93 04 05 	sts	0x0504, r17
    1224:	10 92 05 05 	sts	0x0505, r1
    1228:	10 92 07 05 	sts	0x0507, r1
    122c:	10 92 06 05 	sts	0x0506, r1
    1230:	10 92 09 05 	sts	0x0509, r1
    1234:	10 92 08 05 	sts	0x0508, r1
			 *  \param[in] PipeNumber  Index of the pipe to select.
			 */
			static inline void Pipe_SelectPipe(const uint8_t PipeNumber) ATTR_ALWAYS_INLINE;
			static inline void Pipe_SelectPipe(const uint8_t PipeNumber)
			{
				UPNUM = PipeNumber;
    1238:	10 92 a7 00 	sts	0x00A7, r1
			.wLength       = 0,
		};

	Pipe_SelectPipe(PIPE_CONTROLPIPE);
	
	if ((ErrorCode = USB_Host_SendControlRequest(NULL)) == HOST_SENDCONTROL_Successful)
    123c:	80 e0       	ldi	r24, 0x00	; 0
    123e:	90 e0       	ldi	r25, 0x00	; 0
    1240:	e1 de       	rcall	.-574    	; 0x1004 <USB_Host_SendControlRequest>
    1242:	88 23       	and	r24, r24
    1244:	49 f4       	brne	.+18     	; 0x1258 <USB_Host_SetDeviceConfiguration+0x46>
	{
		USB_Host_ConfigurationNumber = ConfigNumber;
    1246:	10 93 00 05 	sts	0x0500, r17
		USB_HostState                = (ConfigNumber) ? HOST_STATE_Configured : HOST_STATE_Addressed;
    124a:	11 23       	and	r17, r17
    124c:	11 f4       	brne	.+4      	; 0x1252 <USB_Host_SetDeviceConfiguration+0x40>
    124e:	9a e0       	ldi	r25, 0x0A	; 10
    1250:	01 c0       	rjmp	.+2      	; 0x1254 <USB_Host_SetDeviceConfiguration+0x42>
    1252:	9b e0       	ldi	r25, 0x0B	; 11
    1254:	90 93 0a 05 	sts	0x050A, r25
	}

	return ErrorCode;
}
    1258:	1f 91       	pop	r17
    125a:	08 95       	ret

0000125c <USB_USBTask>:
#if defined(USB_CAN_BE_DEVICE) && !defined(DEVICE_STATE_AS_GPIOR)
volatile uint8_t     USB_DeviceState;
#endif

void USB_USBTask(void)
{
    125c:	ff 92       	push	r15
    125e:	0f 93       	push	r16
    1260:	1f 93       	push	r17
			 *  \return Index of the currently selected pipe.
			 */
			static inline uint8_t Pipe_GetCurrentPipe(void) ATTR_WARN_UNUSED_RESULT ATTR_ALWAYS_INLINE;
			static inline uint8_t Pipe_GetCurrentPipe(void)
			{
				return (UPNUM & PIPE_PIPENUM_MASK);
    1262:	07 ea       	ldi	r16, 0xA7	; 167
    1264:	10 e0       	ldi	r17, 0x00	; 0
    1266:	f8 01       	movw	r30, r16
    1268:	f0 80       	ld	r15, Z
    126a:	f7 e0       	ldi	r31, 0x07	; 7
    126c:	ff 22       	and	r15, r31
			 *  \param[in] PipeNumber  Index of the pipe to select.
			 */
			static inline void Pipe_SelectPipe(const uint8_t PipeNumber) ATTR_ALWAYS_INLINE;
			static inline void Pipe_SelectPipe(const uint8_t PipeNumber)
			{
				UPNUM = PipeNumber;
    126e:	f8 01       	movw	r30, r16
    1270:	10 82       	st	Z, r1
{
	uint8_t PrevPipe = Pipe_GetCurrentPipe();

	Pipe_SelectPipe(PIPE_CONTROLPIPE);

	USB_Host_ProcessNextHostState();
    1272:	aa da       	rcall	.-2732   	; 0x7c8 <USB_Host_ProcessNextHostState>
    1274:	f8 01       	movw	r30, r16
    1276:	f0 82       	st	Z, r15
		if (USB_CurrentMode == USB_MODE_Device)
		  USB_DeviceTask();
		else if (USB_CurrentMode == USB_MODE_Host)
		  USB_HostTask();
	#endif
}
    1278:	1f 91       	pop	r17
    127a:	0f 91       	pop	r16
    127c:	ff 90       	pop	r15
    127e:	08 95       	ret

00001280 <USB_GetHIDReportItemInfo>:
	return HID_PARSE_Successful;
}

bool USB_GetHIDReportItemInfo(const uint8_t* ReportData,
                              HID_ReportItem_t* const ReportItem)
{
    1280:	cf 92       	push	r12
    1282:	df 92       	push	r13
    1284:	ef 92       	push	r14
    1286:	ff 92       	push	r15
    1288:	0f 93       	push	r16
    128a:	1f 93       	push	r17
    128c:	cf 93       	push	r28
    128e:	df 93       	push	r29
    1290:	6c 01       	movw	r12, r24
    1292:	eb 01       	movw	r28, r22
	if (ReportItem == NULL)
    1294:	61 15       	cp	r22, r1
    1296:	71 05       	cpc	r23, r1
    1298:	09 f4       	brne	.+2      	; 0x129c <USB_GetHIDReportItemInfo+0x1c>
    129a:	4f c0       	rjmp	.+158    	; 0x133a <USB_GetHIDReportItemInfo+0xba>
	  return false;

	uint16_t DataBitsRem  = ReportItem->Attributes.BitSize;
    129c:	28 85       	ldd	r18, Y+8	; 0x08
	uint16_t CurrentBit   = ReportItem->BitOffset;
    129e:	e8 80       	ld	r14, Y
    12a0:	f9 80       	ldd	r15, Y+1	; 0x01
	uint32_t BitMask      = (1 << 0);

	if (ReportItem->ReportID)
    12a2:	9d 81       	ldd	r25, Y+5	; 0x05
    12a4:	99 23       	and	r25, r25
    12a6:	41 f0       	breq	.+16     	; 0x12b8 <USB_GetHIDReportItemInfo+0x38>
	{
		if (ReportItem->ReportID != ReportData[0])
    12a8:	f6 01       	movw	r30, r12
    12aa:	80 81       	ld	r24, Z
    12ac:	98 17       	cp	r25, r24
    12ae:	09 f0       	breq	.+2      	; 0x12b2 <USB_GetHIDReportItemInfo+0x32>
    12b0:	44 c0       	rjmp	.+136    	; 0x133a <USB_GetHIDReportItemInfo+0xba>
		  return false;

		ReportData++;
    12b2:	08 94       	sec
    12b4:	c1 1c       	adc	r12, r1
    12b6:	d1 1c       	adc	r13, r1
                              HID_ReportItem_t* const ReportItem)
{
	if (ReportItem == NULL)
	  return false;

	uint16_t DataBitsRem  = ReportItem->Attributes.BitSize;
    12b8:	02 2f       	mov	r16, r18
    12ba:	10 e0       	ldi	r17, 0x00	; 0
		  return false;

		ReportData++;
	}

	ReportItem->PreviousValue = ReportItem->Value;
    12bc:	8a a1       	ldd	r24, Y+34	; 0x22
    12be:	9b a1       	ldd	r25, Y+35	; 0x23
    12c0:	ac a1       	ldd	r26, Y+36	; 0x24
    12c2:	bd a1       	ldd	r27, Y+37	; 0x25
    12c4:	8e a3       	std	Y+38, r24	; 0x26
    12c6:	9f a3       	std	Y+39, r25	; 0x27
    12c8:	a8 a7       	std	Y+40, r26	; 0x28
    12ca:	b9 a7       	std	Y+41, r27	; 0x29
	ReportItem->Value = 0;
    12cc:	1a a2       	std	Y+34, r1	; 0x22
    12ce:	1b a2       	std	Y+35, r1	; 0x23
    12d0:	1c a2       	std	Y+36, r1	; 0x24
    12d2:	1d a2       	std	Y+37, r1	; 0x25
    12d4:	41 e0       	ldi	r20, 0x01	; 1
    12d6:	50 e0       	ldi	r21, 0x00	; 0
    12d8:	60 e0       	ldi	r22, 0x00	; 0
    12da:	70 e0       	ldi	r23, 0x00	; 0
    12dc:	29 c0       	rjmp	.+82     	; 0x1330 <USB_GetHIDReportItemInfo+0xb0>

	while (DataBitsRem--)
	{
		if (ReportData[CurrentBit / 8] & (1 << (CurrentBit % 8)))
    12de:	f7 01       	movw	r30, r14
    12e0:	93 e0       	ldi	r25, 0x03	; 3
    12e2:	f6 95       	lsr	r31
    12e4:	e7 95       	ror	r30
    12e6:	9a 95       	dec	r25
    12e8:	e1 f7       	brne	.-8      	; 0x12e2 <USB_GetHIDReportItemInfo+0x62>
    12ea:	ec 0d       	add	r30, r12
    12ec:	fd 1d       	adc	r31, r13
    12ee:	80 81       	ld	r24, Z
    12f0:	90 e0       	ldi	r25, 0x00	; 0
    12f2:	97 01       	movw	r18, r14
    12f4:	27 70       	andi	r18, 0x07	; 7
    12f6:	30 70       	andi	r19, 0x00	; 0
    12f8:	02 c0       	rjmp	.+4      	; 0x12fe <USB_GetHIDReportItemInfo+0x7e>
    12fa:	95 95       	asr	r25
    12fc:	87 95       	ror	r24
    12fe:	2a 95       	dec	r18
    1300:	e2 f7       	brpl	.-8      	; 0x12fa <USB_GetHIDReportItemInfo+0x7a>
    1302:	80 ff       	sbrs	r24, 0
    1304:	0c c0       	rjmp	.+24     	; 0x131e <USB_GetHIDReportItemInfo+0x9e>
		  ReportItem->Value |= BitMask;
    1306:	8a a1       	ldd	r24, Y+34	; 0x22
    1308:	9b a1       	ldd	r25, Y+35	; 0x23
    130a:	ac a1       	ldd	r26, Y+36	; 0x24
    130c:	bd a1       	ldd	r27, Y+37	; 0x25
    130e:	84 2b       	or	r24, r20
    1310:	95 2b       	or	r25, r21
    1312:	a6 2b       	or	r26, r22
    1314:	b7 2b       	or	r27, r23
    1316:	8a a3       	std	Y+34, r24	; 0x22
    1318:	9b a3       	std	Y+35, r25	; 0x23
    131a:	ac a3       	std	Y+36, r26	; 0x24
    131c:	bd a3       	std	Y+37, r27	; 0x25

		CurrentBit++;
    131e:	08 94       	sec
    1320:	e1 1c       	adc	r14, r1
    1322:	f1 1c       	adc	r15, r1
		BitMask <<= 1;
    1324:	44 0f       	add	r20, r20
    1326:	55 1f       	adc	r21, r21
    1328:	66 1f       	adc	r22, r22
    132a:	77 1f       	adc	r23, r23
    132c:	01 50       	subi	r16, 0x01	; 1
    132e:	10 40       	sbci	r17, 0x00	; 0
	}

	ReportItem->PreviousValue = ReportItem->Value;
	ReportItem->Value = 0;

	while (DataBitsRem--)
    1330:	01 15       	cp	r16, r1
    1332:	11 05       	cpc	r17, r1
    1334:	a1 f6       	brne	.-88     	; 0x12de <USB_GetHIDReportItemInfo+0x5e>
    1336:	81 e0       	ldi	r24, 0x01	; 1
    1338:	01 c0       	rjmp	.+2      	; 0x133c <USB_GetHIDReportItemInfo+0xbc>
    133a:	80 e0       	ldi	r24, 0x00	; 0
		CurrentBit++;
		BitMask <<= 1;
	}

	return true;
}
    133c:	df 91       	pop	r29
    133e:	cf 91       	pop	r28
    1340:	1f 91       	pop	r17
    1342:	0f 91       	pop	r16
    1344:	ff 90       	pop	r15
    1346:	ef 90       	pop	r14
    1348:	df 90       	pop	r13
    134a:	cf 90       	pop	r12
    134c:	08 95       	ret

0000134e <USB_GetHIDReportSize>:
}

uint16_t USB_GetHIDReportSize(HID_ReportInfo_t* const ParserData,
                              const uint8_t ReportID,
                              const uint8_t ReportType)
{
    134e:	e4 2f       	mov	r30, r20
    1350:	f0 e0       	ldi	r31, 0x00	; 0
    1352:	ee 0f       	add	r30, r30
    1354:	ff 1f       	adc	r31, r31
    1356:	ef 56       	subi	r30, 0x6F	; 111
    1358:	fc 4f       	sbci	r31, 0xFC	; 252
    135a:	e8 0f       	add	r30, r24
    135c:	f9 1f       	adc	r31, r25
    135e:	dc 01       	movw	r26, r24
    1360:	a0 57       	subi	r26, 0x70	; 112
    1362:	bc 4f       	sbci	r27, 0xFC	; 252
    1364:	90 e0       	ldi	r25, 0x00	; 0
	for (uint8_t i = 0; i < HID_MAX_REPORT_IDS; i++)
	{
		uint16_t ReportSizeBits = ParserData->ReportIDSizes[i].ReportSizeBits[ReportType];
    1366:	20 81       	ld	r18, Z
    1368:	31 81       	ldd	r19, Z+1	; 0x01

		if (ParserData->ReportIDSizes[i].ReportID == ReportID)
    136a:	8c 91       	ld	r24, X
    136c:	86 17       	cp	r24, r22
    136e:	89 f4       	brne	.+34     	; 0x1392 <USB_GetHIDReportSize+0x44>
		  return (ReportSizeBits / 8) + ((ReportSizeBits % 8) ? 1 : 0);
    1370:	40 e0       	ldi	r20, 0x00	; 0
    1372:	50 e0       	ldi	r21, 0x00	; 0
    1374:	c9 01       	movw	r24, r18
    1376:	87 70       	andi	r24, 0x07	; 7
    1378:	90 70       	andi	r25, 0x00	; 0
    137a:	89 2b       	or	r24, r25
    137c:	11 f0       	breq	.+4      	; 0x1382 <USB_GetHIDReportSize+0x34>
    137e:	41 e0       	ldi	r20, 0x01	; 1
    1380:	50 e0       	ldi	r21, 0x00	; 0
    1382:	63 e0       	ldi	r22, 0x03	; 3
    1384:	36 95       	lsr	r19
    1386:	27 95       	ror	r18
    1388:	6a 95       	dec	r22
    138a:	e1 f7       	brne	.-8      	; 0x1384 <USB_GetHIDReportSize+0x36>
    138c:	24 0f       	add	r18, r20
    138e:	35 1f       	adc	r19, r21
    1390:	07 c0       	rjmp	.+14     	; 0x13a0 <USB_GetHIDReportSize+0x52>

uint16_t USB_GetHIDReportSize(HID_ReportInfo_t* const ParserData,
                              const uint8_t ReportID,
                              const uint8_t ReportType)
{
	for (uint8_t i = 0; i < HID_MAX_REPORT_IDS; i++)
    1392:	9f 5f       	subi	r25, 0xFF	; 255
    1394:	37 96       	adiw	r30, 0x07	; 7
    1396:	17 96       	adiw	r26, 0x07	; 7
    1398:	9a 30       	cpi	r25, 0x0A	; 10
    139a:	29 f7       	brne	.-54     	; 0x1366 <USB_GetHIDReportSize+0x18>
    139c:	20 e0       	ldi	r18, 0x00	; 0
    139e:	30 e0       	ldi	r19, 0x00	; 0
		if (ParserData->ReportIDSizes[i].ReportID == ReportID)
		  return (ReportSizeBits / 8) + ((ReportSizeBits % 8) ? 1 : 0);
	}

	return 0;
}
    13a0:	c9 01       	movw	r24, r18
    13a2:	08 95       	ret

000013a4 <USB_ProcessHIDReport>:
#include "HIDParser.h"

uint8_t USB_ProcessHIDReport(const uint8_t* ReportData,
                             uint16_t ReportSize,
                             HID_ReportInfo_t* const ParserData)
{
    13a4:	2f 92       	push	r2
    13a6:	3f 92       	push	r3
    13a8:	4f 92       	push	r4
    13aa:	5f 92       	push	r5
    13ac:	6f 92       	push	r6
    13ae:	7f 92       	push	r7
    13b0:	8f 92       	push	r8
    13b2:	9f 92       	push	r9
    13b4:	af 92       	push	r10
    13b6:	bf 92       	push	r11
    13b8:	cf 92       	push	r12
    13ba:	df 92       	push	r13
    13bc:	ef 92       	push	r14
    13be:	ff 92       	push	r15
    13c0:	0f 93       	push	r16
    13c2:	1f 93       	push	r17
    13c4:	df 93       	push	r29
    13c6:	cf 93       	push	r28
    13c8:	cd b7       	in	r28, 0x3d	; 61
    13ca:	de b7       	in	r29, 0x3e	; 62
    13cc:	c5 59       	subi	r28, 0x95	; 149
    13ce:	d0 40       	sbci	r29, 0x00	; 0
    13d0:	0f b6       	in	r0, 0x3f	; 63
    13d2:	f8 94       	cli
    13d4:	de bf       	out	0x3e, r29	; 62
    13d6:	0f be       	out	0x3f, r0	; 63
    13d8:	cd bf       	out	0x3d, r28	; 61
    13da:	cf 57       	subi	r28, 0x7F	; 127
    13dc:	df 4f       	sbci	r29, 0xFF	; 255
    13de:	99 83       	std	Y+1, r25	; 0x01
    13e0:	88 83       	st	Y, r24
    13e2:	c1 58       	subi	r28, 0x81	; 129
    13e4:	d0 40       	sbci	r29, 0x00	; 0
    13e6:	cd 57       	subi	r28, 0x7D	; 125
    13e8:	df 4f       	sbci	r29, 0xFF	; 255
    13ea:	79 83       	std	Y+1, r23	; 0x01
    13ec:	68 83       	st	Y, r22
    13ee:	c3 58       	subi	r28, 0x83	; 131
    13f0:	d0 40       	sbci	r29, 0x00	; 0
    13f2:	1a 01       	movw	r2, r20
	HID_StateTable_t      StateTable[HID_STATETABLE_STACK_DEPTH];
	HID_StateTable_t*     CurrStateTable          = &StateTable[0];
	HID_CollectionPath_t* CurrCollectionPath      = NULL;
	HID_ReportSizeInfo_t* CurrReportIDInfo        = &ParserData->ReportIDSizes[0];
    13f4:	20 e9       	ldi	r18, 0x90	; 144
    13f6:	82 2e       	mov	r8, r18
    13f8:	23 e0       	ldi	r18, 0x03	; 3
    13fa:	92 2e       	mov	r9, r18
    13fc:	84 0e       	add	r8, r20
    13fe:	95 1e       	adc	r9, r21
	uint16_t              UsageList[HID_USAGE_STACK_DEPTH];
	uint8_t               UsageListSize           = 0;
	HID_MinMax_t          UsageMinMax             = {0, 0};

	memset(ParserData,       0x00, sizeof(HID_ReportInfo_t));
    1400:	89 ed       	ldi	r24, 0xD9	; 217
    1402:	93 e0       	ldi	r25, 0x03	; 3
    1404:	da 01       	movw	r26, r20
    1406:	fc 01       	movw	r30, r24
    1408:	1d 92       	st	X+, r1
    140a:	31 97       	sbiw	r30, 0x01	; 1
    140c:	e9 f7       	brne	.-6      	; 0x1408 <USB_ProcessHIDReport+0x64>
	memset(CurrStateTable,   0x00, sizeof(HID_StateTable_t));
    140e:	fe 01       	movw	r30, r28
    1410:	fb 96       	adiw	r30, 0x3b	; 59
    1412:	8c e1       	ldi	r24, 0x1C	; 28
    1414:	df 01       	movw	r26, r30
    1416:	1d 92       	st	X+, r1
    1418:	8a 95       	dec	r24
    141a:	e9 f7       	brne	.-6      	; 0x1416 <USB_ProcessHIDReport+0x72>
	memset(CurrReportIDInfo, 0x00, sizeof(HID_ReportSizeInfo_t));
    141c:	87 e0       	ldi	r24, 0x07	; 7
    141e:	d4 01       	movw	r26, r8
    1420:	1d 92       	st	X+, r1
    1422:	8a 95       	dec	r24
    1424:	e9 f7       	brne	.-6      	; 0x1420 <USB_ProcessHIDReport+0x7c>

	ParserData->TotalDeviceReports = 1;
    1426:	da 01       	movw	r26, r20
    1428:	a1 57       	subi	r26, 0x71	; 113
    142a:	bc 4f       	sbci	r27, 0xFC	; 252
    142c:	81 e0       	ldi	r24, 0x01	; 1
    142e:	8c 93       	st	X, r24
				UsageMinMax.Maximum = ReportItemData;
				break;
			case HID_RI_COLLECTION(0):
				if (CurrCollectionPath == NULL)
				{
					CurrCollectionPath = &ParserData->CollectionPaths[0];
    1430:	9a 01       	movw	r18, r20
    1432:	27 5b       	subi	r18, 0xB7	; 183
    1434:	3c 4f       	sbci	r19, 0xFC	; 252
    1436:	e7 96       	adiw	r28, 0x37	; 55
    1438:	3f af       	std	Y+63, r19	; 0x3f
    143a:	2e af       	std	Y+62, r18	; 0x3e
    143c:	e7 97       	sbiw	r28, 0x37	; 55
				}
				else
				{
					HID_CollectionPath_t* ParentCollectionPath = CurrCollectionPath;

					CurrCollectionPath = &ParserData->CollectionPaths[1];
    143e:	40 5b       	subi	r20, 0xB0	; 176
    1440:	5c 4f       	sbci	r21, 0xFC	; 252
    1442:	e5 96       	adiw	r28, 0x35	; 53
    1444:	5f af       	std	Y+63, r21	; 0x3f
    1446:	4e af       	std	Y+62, r20	; 0x3e
    1448:	e5 97       	sbiw	r28, 0x35	; 53

					while (CurrCollectionPath->Parent != NULL)
					{
						if (CurrCollectionPath == &ParserData->CollectionPaths[HID_MAX_COLLECTIONS - 1])
    144a:	c1 01       	movw	r24, r2
    144c:	88 57       	subi	r24, 0x78	; 120
    144e:	9c 4f       	sbci	r25, 0xFC	; 252
    1450:	ef 96       	adiw	r28, 0x3f	; 63
    1452:	9f af       	std	Y+63, r25	; 0x3f
    1454:	8e af       	std	Y+62, r24	; 0x3e
    1456:	ef 97       	sbiw	r28, 0x3f	; 63
    1458:	6f 01       	movw	r12, r30
    145a:	aa 24       	eor	r10, r10
    145c:	bb 24       	eor	r11, r11
    145e:	ed 96       	adiw	r28, 0x3d	; 61
    1460:	1f ae       	std	Y+63, r1	; 0x3f
    1462:	ed 97       	sbiw	r28, 0x3d	; 61
    1464:	eb 96       	adiw	r28, 0x3b	; 59
    1466:	1c ae       	std	Y+60, r1	; 0x3c
    1468:	1d ae       	std	Y+61, r1	; 0x3d
    146a:	1e ae       	std	Y+62, r1	; 0x3e
    146c:	1f ae       	std	Y+63, r1	; 0x3f
    146e:	eb 97       	sbiw	r28, 0x3b	; 59
    1470:	44 24       	eor	r4, r4
    1472:	55 24       	eor	r5, r5
    1474:	32 01       	movw	r6, r4

					NewReportItem.BitOffset = CurrReportIDInfo->ReportSizeBits[NewReportItem.ItemType];

					CurrReportIDInfo->ReportSizeBits[NewReportItem.ItemType] += CurrStateTable->Attributes.BitSize;

					ParserData->LargestReportSizeBits = MAX(ParserData->LargestReportSizeBits, CurrReportIDInfo->ReportSizeBits[NewReportItem.ItemType]);
    1476:	f1 01       	movw	r30, r2
    1478:	ea 52       	subi	r30, 0x2A	; 42
    147a:	fc 4f       	sbci	r31, 0xFC	; 252
    147c:	c6 57       	subi	r28, 0x76	; 118
    147e:	df 4f       	sbci	r29, 0xFF	; 255
    1480:	f9 83       	std	Y+1, r31	; 0x01
    1482:	e8 83       	st	Y, r30
    1484:	ca 58       	subi	r28, 0x8A	; 138
    1486:	d0 40       	sbci	r29, 0x00	; 0
				       sizeof(HID_ReportItem_t));

				CurrStateTable++;
				break;
			case HID_RI_POP(0):
				if (CurrStateTable == &StateTable[0])
    1488:	cc 56       	subi	r28, 0x6C	; 108
    148a:	df 4f       	sbci	r29, 0xFF	; 255
    148c:	d9 82       	std	Y+1, r13	; 0x01
    148e:	c8 82       	st	Y, r12
    1490:	c4 59       	subi	r28, 0x94	; 148
    1492:	d0 40       	sbci	r29, 0x00	; 0
		}

		switch (HIDReportItem & (HID_RI_TYPE_MASK | HID_RI_TAG_MASK))
		{
			case HID_RI_PUSH(0):
				if (CurrStateTable == &StateTable[HID_STATETABLE_STACK_DEPTH - 1])
    1494:	96 01       	movw	r18, r12
    1496:	24 5e       	subi	r18, 0xE4	; 228
    1498:	3f 4f       	sbci	r19, 0xFF	; 255
    149a:	c4 57       	subi	r28, 0x74	; 116
    149c:	df 4f       	sbci	r29, 0xFF	; 255
    149e:	39 83       	std	Y+1, r19	; 0x01
    14a0:	28 83       	st	Y, r18
    14a2:	cc 58       	subi	r28, 0x8C	; 140
    14a4:	d0 40       	sbci	r29, 0x00	; 0
				CurrStateTable->ReportCount                 = ReportItemData;
				break;
			case HID_RI_REPORT_ID(0):
				CurrStateTable->ReportID                    = ReportItemData;

				if (ParserData->UsingReportIDs)
    14a6:	a1 01       	movw	r20, r2
    14a8:	48 52       	subi	r20, 0x28	; 40
    14aa:	5c 4f       	sbci	r21, 0xFC	; 252
    14ac:	c2 57       	subi	r28, 0x72	; 114
    14ae:	df 4f       	sbci	r29, 0xFF	; 255
    14b0:	59 83       	std	Y+1, r21	; 0x01
    14b2:	48 83       	st	Y, r20
    14b4:	ce 58       	subi	r28, 0x8E	; 142
    14b6:	d0 40       	sbci	r29, 0x00	; 0
				{
					CurrReportIDInfo = NULL;

					for (uint8_t i = 0; i < ParserData->TotalDeviceReports; i++)
    14b8:	c0 57       	subi	r28, 0x70	; 112
    14ba:	df 4f       	sbci	r29, 0xFF	; 255
    14bc:	b9 83       	std	Y+1, r27	; 0x01
    14be:	a8 83       	st	Y, r26
    14c0:	c0 59       	subi	r28, 0x90	; 144
    14c2:	d0 40       	sbci	r29, 0x00	; 0
    14c4:	c4 01       	movw	r24, r8
    14c6:	ce 56       	subi	r28, 0x6E	; 110
    14c8:	df 4f       	sbci	r29, 0xFF	; 255
    14ca:	88 82       	st	Y, r8
    14cc:	c2 59       	subi	r28, 0x92	; 146
    14ce:	d0 40       	sbci	r29, 0x00	; 0
    14d0:	cd 56       	subi	r28, 0x6D	; 109
    14d2:	df 4f       	sbci	r29, 0xFF	; 255
    14d4:	98 83       	st	Y, r25
    14d6:	c3 59       	subi	r28, 0x93	; 147
    14d8:	d0 40       	sbci	r29, 0x00	; 0
    14da:	3e c3       	rjmp	.+1660   	; 0x1b58 <USB_ProcessHIDReport+0x7b4>

	ParserData->TotalDeviceReports = 1;

	while (ReportSize)
	{
		uint8_t  HIDReportItem  = *ReportData;
    14dc:	cf 57       	subi	r28, 0x7F	; 127
    14de:	df 4f       	sbci	r29, 0xFF	; 255
    14e0:	a8 81       	ld	r26, Y
    14e2:	b9 81       	ldd	r27, Y+1	; 0x01
    14e4:	c1 58       	subi	r28, 0x81	; 129
    14e6:	d0 40       	sbci	r29, 0x00	; 0
    14e8:	4d 91       	ld	r20, X+
    14ea:	cf 57       	subi	r28, 0x7F	; 127
    14ec:	df 4f       	sbci	r29, 0xFF	; 255
    14ee:	b9 83       	std	Y+1, r27	; 0x01
    14f0:	a8 83       	st	Y, r26
    14f2:	c1 58       	subi	r28, 0x81	; 129
    14f4:	d0 40       	sbci	r29, 0x00	; 0
		uint32_t ReportItemData = 0;

		ReportData++;
		ReportSize--;
    14f6:	cd 57       	subi	r28, 0x7D	; 125
    14f8:	df 4f       	sbci	r29, 0xFF	; 255
    14fa:	e8 81       	ld	r30, Y
    14fc:	f9 81       	ldd	r31, Y+1	; 0x01
    14fe:	c3 58       	subi	r28, 0x83	; 131
    1500:	d0 40       	sbci	r29, 0x00	; 0
    1502:	31 97       	sbiw	r30, 0x01	; 1
    1504:	cd 57       	subi	r28, 0x7D	; 125
    1506:	df 4f       	sbci	r29, 0xFF	; 255
    1508:	f9 83       	std	Y+1, r31	; 0x01
    150a:	e8 83       	st	Y, r30
    150c:	c3 58       	subi	r28, 0x83	; 131
    150e:	d0 40       	sbci	r29, 0x00	; 0

		switch (HIDReportItem & HID_RI_DATA_SIZE_MASK)
    1510:	24 2f       	mov	r18, r20
    1512:	30 e0       	ldi	r19, 0x00	; 0
    1514:	c1 58       	subi	r28, 0x81	; 129
    1516:	df 4f       	sbci	r29, 0xFF	; 255
    1518:	39 83       	std	Y+1, r19	; 0x01
    151a:	28 83       	st	Y, r18
    151c:	cf 57       	subi	r28, 0x7F	; 127
    151e:	d0 40       	sbci	r29, 0x00	; 0
    1520:	23 70       	andi	r18, 0x03	; 3
    1522:	30 70       	andi	r19, 0x00	; 0
    1524:	22 30       	cpi	r18, 0x02	; 2
    1526:	31 05       	cpc	r19, r1
    1528:	11 f1       	breq	.+68     	; 0x156e <USB_ProcessHIDReport+0x1ca>
    152a:	23 30       	cpi	r18, 0x03	; 3
    152c:	31 05       	cpc	r19, r1
    152e:	39 f0       	breq	.+14     	; 0x153e <USB_ProcessHIDReport+0x19a>
    1530:	21 30       	cpi	r18, 0x01	; 1
    1532:	31 05       	cpc	r19, r1
    1534:	a9 f1       	breq	.+106    	; 0x15a0 <USB_ProcessHIDReport+0x1fc>
    1536:	ee 24       	eor	r14, r14
    1538:	ff 24       	eor	r15, r15
    153a:	87 01       	movw	r16, r14
    153c:	4f c0       	rjmp	.+158    	; 0x15dc <USB_ProcessHIDReport+0x238>
		{
			case HID_RI_DATA_BITS_32:
				ReportItemData  = le32_to_cpu(*((uint32_t*)ReportData));
    153e:	cf 57       	subi	r28, 0x7F	; 127
    1540:	df 4f       	sbci	r29, 0xFF	; 255
    1542:	a8 81       	ld	r26, Y
    1544:	b9 81       	ldd	r27, Y+1	; 0x01
    1546:	c1 58       	subi	r28, 0x81	; 129
    1548:	d0 40       	sbci	r29, 0x00	; 0
    154a:	ed 90       	ld	r14, X+
    154c:	fd 90       	ld	r15, X+
    154e:	0d 91       	ld	r16, X+
    1550:	1d 91       	ld	r17, X+
    1552:	cf 57       	subi	r28, 0x7F	; 127
    1554:	df 4f       	sbci	r29, 0xFF	; 255
    1556:	b9 83       	std	Y+1, r27	; 0x01
    1558:	a8 83       	st	Y, r26
    155a:	c1 58       	subi	r28, 0x81	; 129
    155c:	d0 40       	sbci	r29, 0x00	; 0
				ReportSize     -= 4;
    155e:	cd 57       	subi	r28, 0x7D	; 125
    1560:	df 4f       	sbci	r29, 0xFF	; 255
    1562:	e8 81       	ld	r30, Y
    1564:	f9 81       	ldd	r31, Y+1	; 0x01
    1566:	c3 58       	subi	r28, 0x83	; 131
    1568:	d0 40       	sbci	r29, 0x00	; 0
    156a:	34 97       	sbiw	r30, 0x04	; 4
    156c:	31 c0       	rjmp	.+98     	; 0x15d0 <USB_ProcessHIDReport+0x22c>
				ReportData     += 4;
				break;
			case HID_RI_DATA_BITS_16:
				ReportItemData  = le16_to_cpu(*((uint16_t*)ReportData));
    156e:	cf 57       	subi	r28, 0x7F	; 127
    1570:	df 4f       	sbci	r29, 0xFF	; 255
    1572:	a8 81       	ld	r26, Y
    1574:	b9 81       	ldd	r27, Y+1	; 0x01
    1576:	c1 58       	subi	r28, 0x81	; 129
    1578:	d0 40       	sbci	r29, 0x00	; 0
    157a:	8d 91       	ld	r24, X+
    157c:	9d 91       	ld	r25, X+
    157e:	cf 57       	subi	r28, 0x7F	; 127
    1580:	df 4f       	sbci	r29, 0xFF	; 255
    1582:	b9 83       	std	Y+1, r27	; 0x01
    1584:	a8 83       	st	Y, r26
    1586:	c1 58       	subi	r28, 0x81	; 129
    1588:	d0 40       	sbci	r29, 0x00	; 0
    158a:	7c 01       	movw	r14, r24
    158c:	00 e0       	ldi	r16, 0x00	; 0
    158e:	10 e0       	ldi	r17, 0x00	; 0
				ReportSize     -= 2;
    1590:	cd 57       	subi	r28, 0x7D	; 125
    1592:	df 4f       	sbci	r29, 0xFF	; 255
    1594:	e8 81       	ld	r30, Y
    1596:	f9 81       	ldd	r31, Y+1	; 0x01
    1598:	c3 58       	subi	r28, 0x83	; 131
    159a:	d0 40       	sbci	r29, 0x00	; 0
    159c:	32 97       	sbiw	r30, 0x02	; 2
    159e:	18 c0       	rjmp	.+48     	; 0x15d0 <USB_ProcessHIDReport+0x22c>
				ReportData     += 2;
				break;
			case HID_RI_DATA_BITS_8:
				ReportItemData  = *((uint8_t*)ReportData);
    15a0:	cf 57       	subi	r28, 0x7F	; 127
    15a2:	df 4f       	sbci	r29, 0xFF	; 255
    15a4:	a8 81       	ld	r26, Y
    15a6:	b9 81       	ldd	r27, Y+1	; 0x01
    15a8:	c1 58       	subi	r28, 0x81	; 129
    15aa:	d0 40       	sbci	r29, 0x00	; 0
    15ac:	8d 91       	ld	r24, X+
    15ae:	cf 57       	subi	r28, 0x7F	; 127
    15b0:	df 4f       	sbci	r29, 0xFF	; 255
    15b2:	b9 83       	std	Y+1, r27	; 0x01
    15b4:	a8 83       	st	Y, r26
    15b6:	c1 58       	subi	r28, 0x81	; 129
    15b8:	d0 40       	sbci	r29, 0x00	; 0
    15ba:	e8 2e       	mov	r14, r24
    15bc:	ff 24       	eor	r15, r15
    15be:	00 e0       	ldi	r16, 0x00	; 0
    15c0:	10 e0       	ldi	r17, 0x00	; 0
				ReportSize     -= 1;
    15c2:	cd 57       	subi	r28, 0x7D	; 125
    15c4:	df 4f       	sbci	r29, 0xFF	; 255
    15c6:	e8 81       	ld	r30, Y
    15c8:	f9 81       	ldd	r31, Y+1	; 0x01
    15ca:	c3 58       	subi	r28, 0x83	; 131
    15cc:	d0 40       	sbci	r29, 0x00	; 0
    15ce:	31 97       	sbiw	r30, 0x01	; 1
    15d0:	cd 57       	subi	r28, 0x7D	; 125
    15d2:	df 4f       	sbci	r29, 0xFF	; 255
    15d4:	f9 83       	std	Y+1, r31	; 0x01
    15d6:	e8 83       	st	Y, r30
    15d8:	c3 58       	subi	r28, 0x83	; 131
    15da:	d0 40       	sbci	r29, 0x00	; 0
				ReportData     += 1;
				break;
		}

		switch (HIDReportItem & (HID_RI_TYPE_MASK | HID_RI_TAG_MASK))
    15dc:	c1 58       	subi	r28, 0x81	; 129
    15de:	df 4f       	sbci	r29, 0xFF	; 255
    15e0:	88 81       	ld	r24, Y
    15e2:	99 81       	ldd	r25, Y+1	; 0x01
    15e4:	cf 57       	subi	r28, 0x7F	; 127
    15e6:	d0 40       	sbci	r29, 0x00	; 0
    15e8:	8c 7f       	andi	r24, 0xFC	; 252
    15ea:	90 70       	andi	r25, 0x00	; 0
    15ec:	84 36       	cpi	r24, 0x64	; 100
    15ee:	91 05       	cpc	r25, r1
    15f0:	09 f4       	brne	.+2      	; 0x15f4 <USB_ProcessHIDReport+0x250>
    15f2:	db c0       	rjmp	.+438    	; 0x17aa <USB_ProcessHIDReport+0x406>
    15f4:	85 36       	cpi	r24, 0x65	; 101
    15f6:	91 05       	cpc	r25, r1
    15f8:	74 f5       	brge	.+92     	; 0x1656 <USB_ProcessHIDReport+0x2b2>
    15fa:	84 32       	cpi	r24, 0x24	; 36
    15fc:	91 05       	cpc	r25, r1
    15fe:	09 f4       	brne	.+2      	; 0x1602 <USB_ProcessHIDReport+0x25e>
    1600:	bb c0       	rjmp	.+374    	; 0x1778 <USB_ProcessHIDReport+0x3d4>
    1602:	85 32       	cpi	r24, 0x25	; 37
    1604:	91 05       	cpc	r25, r1
    1606:	9c f4       	brge	.+38     	; 0x162e <USB_ProcessHIDReport+0x28a>
    1608:	88 30       	cpi	r24, 0x08	; 8
    160a:	91 05       	cpc	r25, r1
    160c:	09 f4       	brne	.+2      	; 0x1610 <USB_ProcessHIDReport+0x26c>
    160e:	37 c1       	rjmp	.+622    	; 0x187e <USB_ProcessHIDReport+0x4da>
    1610:	89 30       	cpi	r24, 0x09	; 9
    1612:	91 05       	cpc	r25, r1
    1614:	24 f4       	brge	.+8      	; 0x161e <USB_ProcessHIDReport+0x27a>
    1616:	04 97       	sbiw	r24, 0x04	; 4
    1618:	09 f0       	breq	.+2      	; 0x161c <USB_ProcessHIDReport+0x278>
    161a:	86 c2       	rjmp	.+1292   	; 0x1b28 <USB_ProcessHIDReport+0x784>
    161c:	98 c0       	rjmp	.+304    	; 0x174e <USB_ProcessHIDReport+0x3aa>
    161e:	84 31       	cpi	r24, 0x14	; 20
    1620:	91 05       	cpc	r25, r1
    1622:	09 f4       	brne	.+2      	; 0x1626 <USB_ProcessHIDReport+0x282>
    1624:	a3 c0       	rjmp	.+326    	; 0x176c <USB_ProcessHIDReport+0x3c8>
    1626:	48 97       	sbiw	r24, 0x18	; 24
    1628:	09 f0       	breq	.+2      	; 0x162c <USB_ProcessHIDReport+0x288>
    162a:	7e c2       	rjmp	.+1276   	; 0x1b28 <USB_ProcessHIDReport+0x784>
    162c:	47 c0       	rjmp	.+142    	; 0x16bc <USB_ProcessHIDReport+0x318>
    162e:	84 33       	cpi	r24, 0x34	; 52
    1630:	91 05       	cpc	r25, r1
    1632:	09 f4       	brne	.+2      	; 0x1636 <USB_ProcessHIDReport+0x292>
    1634:	a9 c0       	rjmp	.+338    	; 0x1788 <USB_ProcessHIDReport+0x3e4>
    1636:	85 33       	cpi	r24, 0x35	; 53
    1638:	91 05       	cpc	r25, r1
    163a:	24 f4       	brge	.+8      	; 0x1644 <USB_ProcessHIDReport+0x2a0>
    163c:	88 97       	sbiw	r24, 0x28	; 40
    163e:	09 f0       	breq	.+2      	; 0x1642 <USB_ProcessHIDReport+0x29e>
    1640:	73 c2       	rjmp	.+1254   	; 0x1b28 <USB_ProcessHIDReport+0x784>
    1642:	38 c1       	rjmp	.+624    	; 0x18b4 <USB_ProcessHIDReport+0x510>
    1644:	84 34       	cpi	r24, 0x44	; 68
    1646:	91 05       	cpc	r25, r1
    1648:	09 f4       	brne	.+2      	; 0x164c <USB_ProcessHIDReport+0x2a8>
    164a:	a4 c0       	rjmp	.+328    	; 0x1794 <USB_ProcessHIDReport+0x3f0>
    164c:	84 35       	cpi	r24, 0x54	; 84
    164e:	91 05       	cpc	r25, r1
    1650:	09 f0       	breq	.+2      	; 0x1654 <USB_ProcessHIDReport+0x2b0>
    1652:	6a c2       	rjmp	.+1236   	; 0x1b28 <USB_ProcessHIDReport+0x784>
    1654:	a7 c0       	rjmp	.+334    	; 0x17a4 <USB_ProcessHIDReport+0x400>
    1656:	84 39       	cpi	r24, 0x94	; 148
    1658:	91 05       	cpc	r25, r1
    165a:	09 f4       	brne	.+2      	; 0x165e <USB_ProcessHIDReport+0x2ba>
    165c:	b1 c0       	rjmp	.+354    	; 0x17c0 <USB_ProcessHIDReport+0x41c>
    165e:	85 39       	cpi	r24, 0x95	; 149
    1660:	91 05       	cpc	r25, r1
    1662:	a4 f4       	brge	.+40     	; 0x168c <USB_ProcessHIDReport+0x2e8>
    1664:	80 38       	cpi	r24, 0x80	; 128
    1666:	91 05       	cpc	r25, r1
    1668:	69 f1       	breq	.+90     	; 0x16c4 <USB_ProcessHIDReport+0x320>
    166a:	81 38       	cpi	r24, 0x81	; 129
    166c:	91 05       	cpc	r25, r1
    166e:	2c f4       	brge	.+10     	; 0x167a <USB_ProcessHIDReport+0x2d6>
    1670:	84 37       	cpi	r24, 0x74	; 116
    1672:	91 05       	cpc	r25, r1
    1674:	09 f0       	breq	.+2      	; 0x1678 <USB_ProcessHIDReport+0x2d4>
    1676:	58 c2       	rjmp	.+1200   	; 0x1b28 <USB_ProcessHIDReport+0x784>
    1678:	a0 c0       	rjmp	.+320    	; 0x17ba <USB_ProcessHIDReport+0x416>
    167a:	84 38       	cpi	r24, 0x84	; 132
    167c:	91 05       	cpc	r25, r1
    167e:	09 f4       	brne	.+2      	; 0x1682 <USB_ProcessHIDReport+0x2de>
    1680:	a3 c0       	rjmp	.+326    	; 0x17c8 <USB_ProcessHIDReport+0x424>
    1682:	80 39       	cpi	r24, 0x90	; 144
    1684:	91 05       	cpc	r25, r1
    1686:	09 f0       	breq	.+2      	; 0x168a <USB_ProcessHIDReport+0x2e6>
    1688:	4f c2       	rjmp	.+1182   	; 0x1b28 <USB_ProcessHIDReport+0x784>
    168a:	1c c0       	rjmp	.+56     	; 0x16c4 <USB_ProcessHIDReport+0x320>
    168c:	80 3b       	cpi	r24, 0xB0	; 176
    168e:	91 05       	cpc	r25, r1
    1690:	c9 f0       	breq	.+50     	; 0x16c4 <USB_ProcessHIDReport+0x320>
    1692:	81 3b       	cpi	r24, 0xB1	; 177
    1694:	91 05       	cpc	r25, r1
    1696:	4c f4       	brge	.+18     	; 0x16aa <USB_ProcessHIDReport+0x306>
    1698:	80 3a       	cpi	r24, 0xA0	; 160
    169a:	91 05       	cpc	r25, r1
    169c:	09 f4       	brne	.+2      	; 0x16a0 <USB_ProcessHIDReport+0x2fc>
    169e:	12 c1       	rjmp	.+548    	; 0x18c4 <USB_ProcessHIDReport+0x520>
    16a0:	84 3a       	cpi	r24, 0xA4	; 164
    16a2:	91 05       	cpc	r25, r1
    16a4:	09 f0       	breq	.+2      	; 0x16a8 <USB_ProcessHIDReport+0x304>
    16a6:	40 c2       	rjmp	.+1152   	; 0x1b28 <USB_ProcessHIDReport+0x784>
    16a8:	2a c0       	rjmp	.+84     	; 0x16fe <USB_ProcessHIDReport+0x35a>
    16aa:	84 3b       	cpi	r24, 0xB4	; 180
    16ac:	91 05       	cpc	r25, r1
    16ae:	09 f4       	brne	.+2      	; 0x16b2 <USB_ProcessHIDReport+0x30e>
    16b0:	3e c0       	rjmp	.+124    	; 0x172e <USB_ProcessHIDReport+0x38a>
    16b2:	80 3c       	cpi	r24, 0xC0	; 192
    16b4:	91 05       	cpc	r25, r1
    16b6:	09 f0       	breq	.+2      	; 0x16ba <USB_ProcessHIDReport+0x316>
    16b8:	37 c2       	rjmp	.+1134   	; 0x1b28 <USB_ProcessHIDReport+0x784>
    16ba:	63 c1       	rjmp	.+710    	; 0x1982 <USB_ProcessHIDReport+0x5de>
    16bc:	f5 01       	movw	r30, r10
    16be:	27 01       	movw	r4, r14
    16c0:	38 01       	movw	r6, r16
    16c2:	33 c2       	rjmp	.+1126   	; 0x1b2a <USB_ProcessHIDReport+0x786>
			case HID_RI_FEATURE(0):
				for (uint8_t ReportItemNum = 0; ReportItemNum < CurrStateTable->ReportCount; ReportItemNum++)
				{
					HID_ReportItem_t NewReportItem;

					memcpy(&NewReportItem.Attributes,
    16c4:	cb 57       	subi	r28, 0x7B	; 123
    16c6:	df 4f       	sbci	r29, 0xFF	; 255
    16c8:	c8 82       	st	Y, r12
    16ca:	c5 58       	subi	r28, 0x85	; 133
    16cc:	d0 40       	sbci	r29, 0x00	; 0
    16ce:	ca 57       	subi	r28, 0x7A	; 122
    16d0:	df 4f       	sbci	r29, 0xFF	; 255
    16d2:	d8 82       	st	Y, r13
    16d4:	c6 58       	subi	r28, 0x86	; 134
    16d6:	d0 40       	sbci	r29, 0x00	; 0
    16d8:	ec 96       	adiw	r28, 0x3c	; 60
    16da:	1f ae       	std	Y+63, r1	; 0x3f
    16dc:	ec 97       	sbiw	r28, 0x3c	; 60
					else if (UsageMinMax.Minimum <= UsageMinMax.Maximum)
					{
						NewReportItem.Attributes.Usage.Usage = UsageMinMax.Minimum++;
					}

					uint8_t ItemTypeTag = (HIDReportItem & (HID_RI_TYPE_MASK | HID_RI_TAG_MASK));
    16de:	4c 7f       	andi	r20, 0xFC	; 252
    16e0:	c9 57       	subi	r28, 0x79	; 121
    16e2:	df 4f       	sbci	r29, 0xFF	; 255
    16e4:	48 83       	st	Y, r20
    16e6:	c7 58       	subi	r28, 0x87	; 135
    16e8:	d0 40       	sbci	r29, 0x00	; 0
					  return HID_PARSE_InsufficientReportItems;

					memcpy(&ParserData->ReportItems[ParserData->TotalReportItems],
					       &NewReportItem, sizeof(HID_ReportItem_t));

					if (!(ReportItemData & HID_IOF_CONSTANT) && CALLBACK_HIDParser_FilterHIDReportItem(&NewReportItem))
    16ea:	97 01       	movw	r18, r14
    16ec:	21 70       	andi	r18, 0x01	; 1
    16ee:	30 70       	andi	r19, 0x00	; 0
    16f0:	c8 57       	subi	r28, 0x78	; 120
    16f2:	df 4f       	sbci	r29, 0xFF	; 255
    16f4:	39 83       	std	Y+1, r19	; 0x01
    16f6:	28 83       	st	Y, r18
    16f8:	c8 58       	subi	r28, 0x88	; 136
    16fa:	d0 40       	sbci	r29, 0x00	; 0
    16fc:	0d c2       	rjmp	.+1050   	; 0x1b18 <USB_ProcessHIDReport+0x774>
		}

		switch (HIDReportItem & (HID_RI_TYPE_MASK | HID_RI_TAG_MASK))
		{
			case HID_RI_PUSH(0):
				if (CurrStateTable == &StateTable[HID_STATETABLE_STACK_DEPTH - 1])
    16fe:	c4 57       	subi	r28, 0x74	; 116
    1700:	df 4f       	sbci	r29, 0xFF	; 255
    1702:	48 81       	ld	r20, Y
    1704:	59 81       	ldd	r21, Y+1	; 0x01
    1706:	cc 58       	subi	r28, 0x8C	; 140
    1708:	d0 40       	sbci	r29, 0x00	; 0
    170a:	c4 16       	cp	r12, r20
    170c:	d5 06       	cpc	r13, r21
    170e:	11 f4       	brne	.+4      	; 0x1714 <USB_ProcessHIDReport+0x370>
    1710:	81 e0       	ldi	r24, 0x01	; 1
    1712:	32 c2       	rjmp	.+1124   	; 0x1b78 <USB_ProcessHIDReport+0x7d4>
				  return HID_PARSE_HIDStackOverflow;

				memcpy((CurrStateTable + 1),
    1714:	d6 01       	movw	r26, r12
    1716:	5c 96       	adiw	r26, 0x1c	; 28
    1718:	f6 01       	movw	r30, r12
    171a:	8a e2       	ldi	r24, 0x2A	; 42
    171c:	01 90       	ld	r0, Z+
    171e:	0d 92       	st	X+, r0
    1720:	81 50       	subi	r24, 0x01	; 1
    1722:	e1 f7       	brne	.-8      	; 0x171c <USB_ProcessHIDReport+0x378>
				       CurrStateTable,
				       sizeof(HID_ReportItem_t));

				CurrStateTable++;
    1724:	8c e1       	ldi	r24, 0x1C	; 28
    1726:	90 e0       	ldi	r25, 0x00	; 0
    1728:	c8 0e       	add	r12, r24
    172a:	d9 1e       	adc	r13, r25
    172c:	fd c1       	rjmp	.+1018   	; 0x1b28 <USB_ProcessHIDReport+0x784>
				break;
			case HID_RI_POP(0):
				if (CurrStateTable == &StateTable[0])
    172e:	cc 56       	subi	r28, 0x6C	; 108
    1730:	df 4f       	sbci	r29, 0xFF	; 255
    1732:	a8 81       	ld	r26, Y
    1734:	b9 81       	ldd	r27, Y+1	; 0x01
    1736:	c4 59       	subi	r28, 0x94	; 148
    1738:	d0 40       	sbci	r29, 0x00	; 0
    173a:	ca 16       	cp	r12, r26
    173c:	db 06       	cpc	r13, r27
    173e:	11 f4       	brne	.+4      	; 0x1744 <USB_ProcessHIDReport+0x3a0>
    1740:	82 e0       	ldi	r24, 0x02	; 2
    1742:	1a c2       	rjmp	.+1076   	; 0x1b78 <USB_ProcessHIDReport+0x7d4>
				  return HID_PARSE_HIDStackUnderflow;

				CurrStateTable--;
    1744:	e4 ee       	ldi	r30, 0xE4	; 228
    1746:	ff ef       	ldi	r31, 0xFF	; 255
    1748:	ce 0e       	add	r12, r30
    174a:	df 1e       	adc	r13, r31
    174c:	ed c1       	rjmp	.+986    	; 0x1b28 <USB_ProcessHIDReport+0x784>
				break;
			case HID_RI_USAGE_PAGE(0):
				if ((HIDReportItem & HID_RI_DATA_SIZE_MASK) == HID_RI_DATA_BITS_32)
    174e:	23 30       	cpi	r18, 0x03	; 3
    1750:	31 05       	cpc	r19, r1
    1752:	31 f4       	brne	.+12     	; 0x1760 <USB_ProcessHIDReport+0x3bc>
				  CurrStateTable->Attributes.Usage.Page = (ReportItemData >> 16);
    1754:	c8 01       	movw	r24, r16
    1756:	aa 27       	eor	r26, r26
    1758:	bb 27       	eor	r27, r27
    175a:	f6 01       	movw	r30, r12
    175c:	92 83       	std	Z+2, r25	; 0x02
    175e:	81 83       	std	Z+1, r24	; 0x01
				
				CurrStateTable->Attributes.Usage.Page       = ReportItemData;
    1760:	d6 01       	movw	r26, r12
    1762:	12 96       	adiw	r26, 0x02	; 2
    1764:	fc 92       	st	X, r15
    1766:	ee 92       	st	-X, r14
    1768:	11 97       	sbiw	r26, 0x01	; 1
    176a:	de c1       	rjmp	.+956    	; 0x1b28 <USB_ProcessHIDReport+0x784>
				break;
			case HID_RI_LOGICAL_MINIMUM(0):
				CurrStateTable->Attributes.Logical.Minimum  = ReportItemData;
    176c:	f6 01       	movw	r30, r12
    176e:	e2 86       	std	Z+10, r14	; 0x0a
    1770:	f3 86       	std	Z+11, r15	; 0x0b
    1772:	04 87       	std	Z+12, r16	; 0x0c
    1774:	15 87       	std	Z+13, r17	; 0x0d
    1776:	d8 c1       	rjmp	.+944    	; 0x1b28 <USB_ProcessHIDReport+0x784>
				break;
			case HID_RI_LOGICAL_MAXIMUM(0):
				CurrStateTable->Attributes.Logical.Maximum  = ReportItemData;
    1778:	d6 01       	movw	r26, r12
    177a:	1e 96       	adiw	r26, 0x0e	; 14
    177c:	ed 92       	st	X+, r14
    177e:	fd 92       	st	X+, r15
    1780:	0d 93       	st	X+, r16
    1782:	1c 93       	st	X, r17
    1784:	51 97       	sbiw	r26, 0x11	; 17
    1786:	d0 c1       	rjmp	.+928    	; 0x1b28 <USB_ProcessHIDReport+0x784>
				break;
			case HID_RI_PHYSICAL_MINIMUM(0):
				CurrStateTable->Attributes.Physical.Minimum = ReportItemData;
    1788:	f6 01       	movw	r30, r12
    178a:	e2 8a       	std	Z+18, r14	; 0x12
    178c:	f3 8a       	std	Z+19, r15	; 0x13
    178e:	04 8b       	std	Z+20, r16	; 0x14
    1790:	15 8b       	std	Z+21, r17	; 0x15
    1792:	ca c1       	rjmp	.+916    	; 0x1b28 <USB_ProcessHIDReport+0x784>
				break;
			case HID_RI_PHYSICAL_MAXIMUM(0):
				CurrStateTable->Attributes.Physical.Maximum = ReportItemData;
    1794:	d6 01       	movw	r26, r12
    1796:	56 96       	adiw	r26, 0x16	; 22
    1798:	ed 92       	st	X+, r14
    179a:	fd 92       	st	X+, r15
    179c:	0d 93       	st	X+, r16
    179e:	1c 93       	st	X, r17
    17a0:	59 97       	sbiw	r26, 0x19	; 25
    17a2:	c2 c1       	rjmp	.+900    	; 0x1b28 <USB_ProcessHIDReport+0x784>
				break;
			case HID_RI_UNIT_EXPONENT(0):
				CurrStateTable->Attributes.Unit.Exponent    = ReportItemData;
    17a4:	f6 01       	movw	r30, r12
    17a6:	e1 86       	std	Z+9, r14	; 0x09
    17a8:	bf c1       	rjmp	.+894    	; 0x1b28 <USB_ProcessHIDReport+0x784>
				break;
			case HID_RI_UNIT(0):
				CurrStateTable->Attributes.Unit.Type        = ReportItemData;
    17aa:	d6 01       	movw	r26, r12
    17ac:	15 96       	adiw	r26, 0x05	; 5
    17ae:	ed 92       	st	X+, r14
    17b0:	fd 92       	st	X+, r15
    17b2:	0d 93       	st	X+, r16
    17b4:	1c 93       	st	X, r17
    17b6:	18 97       	sbiw	r26, 0x08	; 8
    17b8:	b7 c1       	rjmp	.+878    	; 0x1b28 <USB_ProcessHIDReport+0x784>
				break;
			case HID_RI_REPORT_SIZE(0):
				CurrStateTable->Attributes.BitSize          = ReportItemData;
    17ba:	f6 01       	movw	r30, r12
    17bc:	e0 82       	st	Z, r14
    17be:	b4 c1       	rjmp	.+872    	; 0x1b28 <USB_ProcessHIDReport+0x784>
				break;
			case HID_RI_REPORT_COUNT(0):
				CurrStateTable->ReportCount                 = ReportItemData;
    17c0:	d6 01       	movw	r26, r12
    17c2:	5a 96       	adiw	r26, 0x1a	; 26
    17c4:	ec 92       	st	X, r14
    17c6:	b0 c1       	rjmp	.+864    	; 0x1b28 <USB_ProcessHIDReport+0x784>
				break;
			case HID_RI_REPORT_ID(0):
				CurrStateTable->ReportID                    = ReportItemData;
    17c8:	3e 2d       	mov	r19, r14
    17ca:	f6 01       	movw	r30, r12
    17cc:	e3 8e       	std	Z+27, r14	; 0x1b

				if (ParserData->UsingReportIDs)
    17ce:	c2 57       	subi	r28, 0x72	; 114
    17d0:	df 4f       	sbci	r29, 0xFF	; 255
    17d2:	a8 81       	ld	r26, Y
    17d4:	b9 81       	ldd	r27, Y+1	; 0x01
    17d6:	ce 58       	subi	r28, 0x8E	; 142
    17d8:	d0 40       	sbci	r29, 0x00	; 0
    17da:	8c 91       	ld	r24, X
    17dc:	88 23       	and	r24, r24
    17de:	09 f4       	brne	.+2      	; 0x17e2 <USB_ProcessHIDReport+0x43e>
    17e0:	40 c0       	rjmp	.+128    	; 0x1862 <USB_ProcessHIDReport+0x4be>
				{
					CurrReportIDInfo = NULL;

					for (uint8_t i = 0; i < ParserData->TotalDeviceReports; i++)
    17e2:	c0 57       	subi	r28, 0x70	; 112
    17e4:	df 4f       	sbci	r29, 0xFF	; 255
    17e6:	e8 81       	ld	r30, Y
    17e8:	f9 81       	ldd	r31, Y+1	; 0x01
    17ea:	c0 59       	subi	r28, 0x90	; 144
    17ec:	d0 40       	sbci	r29, 0x00	; 0
    17ee:	20 81       	ld	r18, Z
    17f0:	ce 56       	subi	r28, 0x6E	; 110
    17f2:	df 4f       	sbci	r29, 0xFF	; 255
    17f4:	88 81       	ld	r24, Y
    17f6:	c2 59       	subi	r28, 0x92	; 146
    17f8:	d0 40       	sbci	r29, 0x00	; 0
    17fa:	cd 56       	subi	r28, 0x6D	; 109
    17fc:	df 4f       	sbci	r29, 0xFF	; 255
    17fe:	98 81       	ld	r25, Y
    1800:	c3 59       	subi	r28, 0x93	; 147
    1802:	d0 40       	sbci	r29, 0x00	; 0
    1804:	dc 01       	movw	r26, r24
    1806:	e0 e0       	ldi	r30, 0x00	; 0
    1808:	10 c0       	rjmp	.+32     	; 0x182a <USB_ProcessHIDReport+0x486>
					{
						if (ParserData->ReportIDSizes[i].ReportID == CurrStateTable->ReportID)
    180a:	8c 91       	ld	r24, X
    180c:	17 96       	adiw	r26, 0x07	; 7
    180e:	83 17       	cp	r24, r19
    1810:	59 f4       	brne	.+22     	; 0x1828 <USB_ProcessHIDReport+0x484>
						{
							CurrReportIDInfo = &ParserData->ReportIDSizes[i];
    1812:	87 e0       	ldi	r24, 0x07	; 7
    1814:	e8 9f       	mul	r30, r24
    1816:	40 01       	movw	r8, r0
    1818:	11 24       	eor	r1, r1
    181a:	20 e9       	ldi	r18, 0x90	; 144
    181c:	33 e0       	ldi	r19, 0x03	; 3
    181e:	82 0e       	add	r8, r18
    1820:	93 1e       	adc	r9, r19
    1822:	82 0c       	add	r8, r2
    1824:	93 1c       	adc	r9, r3
    1826:	1d c0       	rjmp	.+58     	; 0x1862 <USB_ProcessHIDReport+0x4be>

				if (ParserData->UsingReportIDs)
				{
					CurrReportIDInfo = NULL;

					for (uint8_t i = 0; i < ParserData->TotalDeviceReports; i++)
    1828:	ef 5f       	subi	r30, 0xFF	; 255
    182a:	e2 17       	cp	r30, r18
    182c:	70 f3       	brcs	.-36     	; 0x180a <USB_ProcessHIDReport+0x466>
						}
					}

					if (CurrReportIDInfo == NULL)
					{
						if (ParserData->TotalDeviceReports == HID_MAX_REPORT_IDS)
    182e:	2a 30       	cpi	r18, 0x0A	; 10
    1830:	11 f4       	brne	.+4      	; 0x1836 <USB_ProcessHIDReport+0x492>
    1832:	87 e0       	ldi	r24, 0x07	; 7
    1834:	a1 c1       	rjmp	.+834    	; 0x1b78 <USB_ProcessHIDReport+0x7d4>
						  return HID_PARSE_InsufficientReportIDItems;

						CurrReportIDInfo = &ParserData->ReportIDSizes[ParserData->TotalDeviceReports++];
    1836:	87 e0       	ldi	r24, 0x07	; 7
    1838:	28 9f       	mul	r18, r24
    183a:	40 01       	movw	r8, r0
    183c:	11 24       	eor	r1, r1
    183e:	40 e9       	ldi	r20, 0x90	; 144
    1840:	53 e0       	ldi	r21, 0x03	; 3
    1842:	84 0e       	add	r8, r20
    1844:	95 1e       	adc	r9, r21
    1846:	82 0c       	add	r8, r2
    1848:	93 1c       	adc	r9, r3
    184a:	2f 5f       	subi	r18, 0xFF	; 255
    184c:	c0 57       	subi	r28, 0x70	; 112
    184e:	df 4f       	sbci	r29, 0xFF	; 255
    1850:	a8 81       	ld	r26, Y
    1852:	b9 81       	ldd	r27, Y+1	; 0x01
    1854:	c0 59       	subi	r28, 0x90	; 144
    1856:	d0 40       	sbci	r29, 0x00	; 0
    1858:	2c 93       	st	X, r18
						memset(CurrReportIDInfo, 0x00, sizeof(HID_ReportSizeInfo_t));
    185a:	f4 01       	movw	r30, r8
    185c:	11 92       	st	Z+, r1
    185e:	8a 95       	dec	r24
    1860:	e9 f7       	brne	.-6      	; 0x185c <USB_ProcessHIDReport+0x4b8>
					}
				}

				ParserData->UsingReportIDs = true;
    1862:	e1 e0       	ldi	r30, 0x01	; 1
    1864:	c2 57       	subi	r28, 0x72	; 114
    1866:	df 4f       	sbci	r29, 0xFF	; 255
    1868:	a8 81       	ld	r26, Y
    186a:	b9 81       	ldd	r27, Y+1	; 0x01
    186c:	ce 58       	subi	r28, 0x8E	; 142
    186e:	d0 40       	sbci	r29, 0x00	; 0
    1870:	ec 93       	st	X, r30

				CurrReportIDInfo->ReportID = CurrStateTable->ReportID;
    1872:	d6 01       	movw	r26, r12
    1874:	5b 96       	adiw	r26, 0x1b	; 27
    1876:	8c 91       	ld	r24, X
    1878:	f4 01       	movw	r30, r8
    187a:	80 83       	st	Z, r24
    187c:	55 c1       	rjmp	.+682    	; 0x1b28 <USB_ProcessHIDReport+0x784>
				break;
			case HID_RI_USAGE(0):
				if (UsageListSize == HID_USAGE_STACK_DEPTH)
    187e:	ed 96       	adiw	r28, 0x3d	; 61
    1880:	ff ad       	ldd	r31, Y+63	; 0x3f
    1882:	ed 97       	sbiw	r28, 0x3d	; 61
    1884:	f8 30       	cpi	r31, 0x08	; 8
    1886:	11 f4       	brne	.+4      	; 0x188c <USB_ProcessHIDReport+0x4e8>
    1888:	86 e0       	ldi	r24, 0x06	; 6
    188a:	76 c1       	rjmp	.+748    	; 0x1b78 <USB_ProcessHIDReport+0x7d4>
				  return HID_PARSE_UsageListOverflow;

				UsageList[UsageListSize++] = ReportItemData;
    188c:	ed 96       	adiw	r28, 0x3d	; 61
    188e:	2f ad       	ldd	r18, Y+63	; 0x3f
    1890:	ed 97       	sbiw	r28, 0x3d	; 61
    1892:	e2 2f       	mov	r30, r18
    1894:	f0 e0       	ldi	r31, 0x00	; 0
    1896:	ee 0f       	add	r30, r30
    1898:	ff 1f       	adc	r31, r31
    189a:	41 e0       	ldi	r20, 0x01	; 1
    189c:	50 e0       	ldi	r21, 0x00	; 0
    189e:	4c 0f       	add	r20, r28
    18a0:	5d 1f       	adc	r21, r29
    18a2:	e4 0f       	add	r30, r20
    18a4:	f5 1f       	adc	r31, r21
    18a6:	f1 82       	std	Z+1, r15	; 0x01
    18a8:	e0 82       	st	Z, r14
    18aa:	2f 5f       	subi	r18, 0xFF	; 255
    18ac:	ed 96       	adiw	r28, 0x3d	; 61
    18ae:	2f af       	std	Y+63, r18	; 0x3f
    18b0:	ed 97       	sbiw	r28, 0x3d	; 61
    18b2:	3a c1       	rjmp	.+628    	; 0x1b28 <USB_ProcessHIDReport+0x784>
				break;
    18b4:	f5 01       	movw	r30, r10
    18b6:	eb 96       	adiw	r28, 0x3b	; 59
    18b8:	ec ae       	std	Y+60, r14	; 0x3c
    18ba:	fd ae       	std	Y+61, r15	; 0x3d
    18bc:	0e af       	std	Y+62, r16	; 0x3e
    18be:	1f af       	std	Y+63, r17	; 0x3f
    18c0:	eb 97       	sbiw	r28, 0x3b	; 59
    18c2:	33 c1       	rjmp	.+614    	; 0x1b2a <USB_ProcessHIDReport+0x786>
				break;
			case HID_RI_USAGE_MAXIMUM(0):
				UsageMinMax.Maximum = ReportItemData;
				break;
			case HID_RI_COLLECTION(0):
				if (CurrCollectionPath == NULL)
    18c4:	a1 14       	cp	r10, r1
    18c6:	b1 04       	cpc	r11, r1
    18c8:	29 f4       	brne	.+10     	; 0x18d4 <USB_ProcessHIDReport+0x530>
    18ca:	e7 96       	adiw	r28, 0x37	; 55
    18cc:	ee ad       	ldd	r30, Y+62	; 0x3e
    18ce:	ff ad       	ldd	r31, Y+63	; 0x3f
    18d0:	e7 97       	sbiw	r28, 0x37	; 55
    18d2:	15 c0       	rjmp	.+42     	; 0x18fe <USB_ProcessHIDReport+0x55a>
    18d4:	e5 96       	adiw	r28, 0x35	; 53
    18d6:	ee ad       	ldd	r30, Y+62	; 0x3e
    18d8:	ff ad       	ldd	r31, Y+63	; 0x3f
    18da:	e5 97       	sbiw	r28, 0x35	; 53
    18dc:	0a c0       	rjmp	.+20     	; 0x18f2 <USB_ProcessHIDReport+0x54e>

					CurrCollectionPath = &ParserData->CollectionPaths[1];

					while (CurrCollectionPath->Parent != NULL)
					{
						if (CurrCollectionPath == &ParserData->CollectionPaths[HID_MAX_COLLECTIONS - 1])
    18de:	ef 96       	adiw	r28, 0x3f	; 63
    18e0:	8e ad       	ldd	r24, Y+62	; 0x3e
    18e2:	9f ad       	ldd	r25, Y+63	; 0x3f
    18e4:	ef 97       	sbiw	r28, 0x3f	; 63
    18e6:	e8 17       	cp	r30, r24
    18e8:	f9 07       	cpc	r31, r25
    18ea:	11 f4       	brne	.+4      	; 0x18f0 <USB_ProcessHIDReport+0x54c>
    18ec:	85 e0       	ldi	r24, 0x05	; 5
    18ee:	44 c1       	rjmp	.+648    	; 0x1b78 <USB_ProcessHIDReport+0x7d4>
						  return HID_PARSE_InsufficientCollectionPaths;

						CurrCollectionPath++;
    18f0:	37 96       	adiw	r30, 0x07	; 7
				{
					HID_CollectionPath_t* ParentCollectionPath = CurrCollectionPath;

					CurrCollectionPath = &ParserData->CollectionPaths[1];

					while (CurrCollectionPath->Parent != NULL)
    18f2:	85 81       	ldd	r24, Z+5	; 0x05
    18f4:	96 81       	ldd	r25, Z+6	; 0x06
    18f6:	89 2b       	or	r24, r25
    18f8:	91 f7       	brne	.-28     	; 0x18de <USB_ProcessHIDReport+0x53a>
						  return HID_PARSE_InsufficientCollectionPaths;

						CurrCollectionPath++;
					}

					CurrCollectionPath->Parent = ParentCollectionPath;
    18fa:	b6 82       	std	Z+6, r11	; 0x06
    18fc:	a5 82       	std	Z+5, r10	; 0x05
				}

				CurrCollectionPath->Type       = ReportItemData;
    18fe:	e0 82       	st	Z, r14
				CurrCollectionPath->Usage.Page = CurrStateTable->Attributes.Usage.Page;
    1900:	d6 01       	movw	r26, r12
    1902:	11 96       	adiw	r26, 0x01	; 1
    1904:	8d 91       	ld	r24, X+
    1906:	9c 91       	ld	r25, X
    1908:	12 97       	sbiw	r26, 0x02	; 2
    190a:	92 83       	std	Z+2, r25	; 0x02
    190c:	81 83       	std	Z+1, r24	; 0x01

				if (UsageListSize)
    190e:	ed 96       	adiw	r28, 0x3d	; 61
    1910:	bf ad       	ldd	r27, Y+63	; 0x3f
    1912:	ed 97       	sbiw	r28, 0x3d	; 61
    1914:	bb 23       	and	r27, r27
    1916:	09 f1       	breq	.+66     	; 0x195a <USB_ProcessHIDReport+0x5b6>
				{
					CurrCollectionPath->Usage.Usage = UsageList[0];
    1918:	89 81       	ldd	r24, Y+1	; 0x01
    191a:	9a 81       	ldd	r25, Y+2	; 0x02
    191c:	94 83       	std	Z+4, r25	; 0x04
    191e:	83 83       	std	Z+3, r24	; 0x03
    1920:	de 01       	movw	r26, r28
    1922:	11 96       	adiw	r26, 0x01	; 1

					for (uint8_t i = 0; i < UsageListSize; i++)
    1924:	ed 96       	adiw	r28, 0x3d	; 61
    1926:	4f ad       	ldd	r20, Y+63	; 0x3f
    1928:	ed 97       	sbiw	r28, 0x3d	; 61
    192a:	24 2f       	mov	r18, r20
    192c:	30 e0       	ldi	r19, 0x00	; 0
    192e:	22 0f       	add	r18, r18
    1930:	33 1f       	adc	r19, r19
    1932:	2a 0f       	add	r18, r26
    1934:	3b 1f       	adc	r19, r27
    1936:	06 c0       	rjmp	.+12     	; 0x1944 <USB_ProcessHIDReport+0x5a0>
					  UsageList[i] = UsageList[i + 1];
    1938:	12 96       	adiw	r26, 0x02	; 2
    193a:	8d 91       	ld	r24, X+
    193c:	9c 91       	ld	r25, X
    193e:	13 97       	sbiw	r26, 0x03	; 3
    1940:	8d 93       	st	X+, r24
    1942:	9d 93       	st	X+, r25

				if (UsageListSize)
				{
					CurrCollectionPath->Usage.Usage = UsageList[0];

					for (uint8_t i = 0; i < UsageListSize; i++)
    1944:	a2 17       	cp	r26, r18
    1946:	b3 07       	cpc	r27, r19
    1948:	b9 f7       	brne	.-18     	; 0x1938 <USB_ProcessHIDReport+0x594>
					  UsageList[i] = UsageList[i + 1];

					UsageListSize--;
    194a:	ed 96       	adiw	r28, 0x3d	; 61
    194c:	9f ad       	ldd	r25, Y+63	; 0x3f
    194e:	ed 97       	sbiw	r28, 0x3d	; 61
    1950:	91 50       	subi	r25, 0x01	; 1
    1952:	ed 96       	adiw	r28, 0x3d	; 61
    1954:	9f af       	std	Y+63, r25	; 0x3f
    1956:	ed 97       	sbiw	r28, 0x3d	; 61
    1958:	e8 c0       	rjmp	.+464    	; 0x1b2a <USB_ProcessHIDReport+0x786>
				}
				else if (UsageMinMax.Minimum <= UsageMinMax.Maximum)
    195a:	eb 96       	adiw	r28, 0x3b	; 59
    195c:	2c ad       	ldd	r18, Y+60	; 0x3c
    195e:	3d ad       	ldd	r19, Y+61	; 0x3d
    1960:	4e ad       	ldd	r20, Y+62	; 0x3e
    1962:	5f ad       	ldd	r21, Y+63	; 0x3f
    1964:	eb 97       	sbiw	r28, 0x3b	; 59
    1966:	24 15       	cp	r18, r4
    1968:	35 05       	cpc	r19, r5
    196a:	46 05       	cpc	r20, r6
    196c:	57 05       	cpc	r21, r7
    196e:	08 f4       	brcc	.+2      	; 0x1972 <USB_ProcessHIDReport+0x5ce>
    1970:	dc c0       	rjmp	.+440    	; 0x1b2a <USB_ProcessHIDReport+0x786>
				{
					CurrCollectionPath->Usage.Usage = UsageMinMax.Minimum++;
    1972:	54 82       	std	Z+4, r5	; 0x04
    1974:	43 82       	std	Z+3, r4	; 0x03
    1976:	08 94       	sec
    1978:	41 1c       	adc	r4, r1
    197a:	51 1c       	adc	r5, r1
    197c:	61 1c       	adc	r6, r1
    197e:	71 1c       	adc	r7, r1
    1980:	d4 c0       	rjmp	.+424    	; 0x1b2a <USB_ProcessHIDReport+0x786>
				}

				break;
			case HID_RI_END_COLLECTION(0):
				if (CurrCollectionPath == NULL)
    1982:	a1 14       	cp	r10, r1
    1984:	b1 04       	cpc	r11, r1
    1986:	11 f4       	brne	.+4      	; 0x198c <USB_ProcessHIDReport+0x5e8>
    1988:	84 e0       	ldi	r24, 0x04	; 4
    198a:	f6 c0       	rjmp	.+492    	; 0x1b78 <USB_ProcessHIDReport+0x7d4>
				  return HID_PARSE_UnexpectedEndCollection;

				CurrCollectionPath = CurrCollectionPath->Parent;
    198c:	d5 01       	movw	r26, r10
    198e:	15 96       	adiw	r26, 0x05	; 5
    1990:	ed 91       	ld	r30, X+
    1992:	fc 91       	ld	r31, X
    1994:	16 97       	sbiw	r26, 0x06	; 6
    1996:	c9 c0       	rjmp	.+402    	; 0x1b2a <USB_ProcessHIDReport+0x786>
			case HID_RI_FEATURE(0):
				for (uint8_t ReportItemNum = 0; ReportItemNum < CurrStateTable->ReportCount; ReportItemNum++)
				{
					HID_ReportItem_t NewReportItem;

					memcpy(&NewReportItem.Attributes,
    1998:	de 01       	movw	r26, r28
    199a:	59 96       	adiw	r26, 0x19	; 25
    199c:	cb 57       	subi	r28, 0x7B	; 123
    199e:	df 4f       	sbci	r29, 0xFF	; 255
    19a0:	88 81       	ld	r24, Y
    19a2:	c5 58       	subi	r28, 0x85	; 133
    19a4:	d0 40       	sbci	r29, 0x00	; 0
    19a6:	ca 57       	subi	r28, 0x7A	; 122
    19a8:	df 4f       	sbci	r29, 0xFF	; 255
    19aa:	98 81       	ld	r25, Y
    19ac:	c6 58       	subi	r28, 0x86	; 134
    19ae:	d0 40       	sbci	r29, 0x00	; 0
    19b0:	9c 01       	movw	r18, r24
    19b2:	f9 01       	movw	r30, r18
    19b4:	8a e1       	ldi	r24, 0x1A	; 26
    19b6:	01 90       	ld	r0, Z+
    19b8:	0d 92       	st	X+, r0
    19ba:	81 50       	subi	r24, 0x01	; 1
    19bc:	e1 f7       	brne	.-8      	; 0x19b6 <USB_ProcessHIDReport+0x612>
					       &CurrStateTable->Attributes,
					       sizeof(HID_ReportItem_Attributes_t));

					NewReportItem.ItemFlags      = ReportItemData;
    19be:	fd 8a       	std	Y+21, r15	; 0x15
    19c0:	ec 8a       	std	Y+20, r14	; 0x14
					NewReportItem.CollectionPath = CurrCollectionPath;
    19c2:	b8 8e       	std	Y+24, r11	; 0x18
    19c4:	af 8a       	std	Y+23, r10	; 0x17
					NewReportItem.ReportID       = CurrStateTable->ReportID;
    19c6:	f6 01       	movw	r30, r12
    19c8:	83 8d       	ldd	r24, Z+27	; 0x1b
    19ca:	8e 8b       	std	Y+22, r24	; 0x16

					if (UsageListSize)
    19cc:	ed 96       	adiw	r28, 0x3d	; 61
    19ce:	ff ad       	ldd	r31, Y+63	; 0x3f
    19d0:	ed 97       	sbiw	r28, 0x3d	; 61
    19d2:	ff 23       	and	r31, r31
    19d4:	f9 f0       	breq	.+62     	; 0x1a14 <USB_ProcessHIDReport+0x670>
					{
						NewReportItem.Attributes.Usage.Usage = UsageList[0];
    19d6:	49 81       	ldd	r20, Y+1	; 0x01
    19d8:	5a 81       	ldd	r21, Y+2	; 0x02
    19da:	fe 01       	movw	r30, r28
    19dc:	31 96       	adiw	r30, 0x01	; 1

						for (uint8_t i = 0; i < UsageListSize; i++)
    19de:	ed 96       	adiw	r28, 0x3d	; 61
    19e0:	8f ad       	ldd	r24, Y+63	; 0x3f
    19e2:	ed 97       	sbiw	r28, 0x3d	; 61
    19e4:	28 2f       	mov	r18, r24
    19e6:	30 e0       	ldi	r19, 0x00	; 0
    19e8:	22 0f       	add	r18, r18
    19ea:	33 1f       	adc	r19, r19
    19ec:	2e 0f       	add	r18, r30
    19ee:	3f 1f       	adc	r19, r31
    19f0:	04 c0       	rjmp	.+8      	; 0x19fa <USB_ProcessHIDReport+0x656>
						  UsageList[i] = UsageList[i + 1];
    19f2:	82 81       	ldd	r24, Z+2	; 0x02
    19f4:	93 81       	ldd	r25, Z+3	; 0x03
    19f6:	81 93       	st	Z+, r24
    19f8:	91 93       	st	Z+, r25

					if (UsageListSize)
					{
						NewReportItem.Attributes.Usage.Usage = UsageList[0];

						for (uint8_t i = 0; i < UsageListSize; i++)
    19fa:	e2 17       	cp	r30, r18
    19fc:	f3 07       	cpc	r31, r19
    19fe:	c9 f7       	brne	.-14     	; 0x19f2 <USB_ProcessHIDReport+0x64e>
					NewReportItem.CollectionPath = CurrCollectionPath;
					NewReportItem.ReportID       = CurrStateTable->ReportID;

					if (UsageListSize)
					{
						NewReportItem.Attributes.Usage.Usage = UsageList[0];
    1a00:	5d 8f       	std	Y+29, r21	; 0x1d
    1a02:	4c 8f       	std	Y+28, r20	; 0x1c

						for (uint8_t i = 0; i < UsageListSize; i++)
						  UsageList[i] = UsageList[i + 1];

						UsageListSize--;
    1a04:	ed 96       	adiw	r28, 0x3d	; 61
    1a06:	bf ad       	ldd	r27, Y+63	; 0x3f
    1a08:	ed 97       	sbiw	r28, 0x3d	; 61
    1a0a:	b1 50       	subi	r27, 0x01	; 1
    1a0c:	ed 96       	adiw	r28, 0x3d	; 61
    1a0e:	bf af       	std	Y+63, r27	; 0x3f
    1a10:	ed 97       	sbiw	r28, 0x3d	; 61
    1a12:	12 c0       	rjmp	.+36     	; 0x1a38 <USB_ProcessHIDReport+0x694>
					}
					else if (UsageMinMax.Minimum <= UsageMinMax.Maximum)
    1a14:	eb 96       	adiw	r28, 0x3b	; 59
    1a16:	2c ad       	ldd	r18, Y+60	; 0x3c
    1a18:	3d ad       	ldd	r19, Y+61	; 0x3d
    1a1a:	4e ad       	ldd	r20, Y+62	; 0x3e
    1a1c:	5f ad       	ldd	r21, Y+63	; 0x3f
    1a1e:	eb 97       	sbiw	r28, 0x3b	; 59
    1a20:	24 15       	cp	r18, r4
    1a22:	35 05       	cpc	r19, r5
    1a24:	46 05       	cpc	r20, r6
    1a26:	57 05       	cpc	r21, r7
    1a28:	38 f0       	brcs	.+14     	; 0x1a38 <USB_ProcessHIDReport+0x694>
					{
						NewReportItem.Attributes.Usage.Usage = UsageMinMax.Minimum++;
    1a2a:	5d 8e       	std	Y+29, r5	; 0x1d
    1a2c:	4c 8e       	std	Y+28, r4	; 0x1c
    1a2e:	08 94       	sec
    1a30:	41 1c       	adc	r4, r1
    1a32:	51 1c       	adc	r5, r1
    1a34:	61 1c       	adc	r6, r1
    1a36:	71 1c       	adc	r7, r1
					}

					uint8_t ItemTypeTag = (HIDReportItem & (HID_RI_TYPE_MASK | HID_RI_TAG_MASK));

					if (ItemTypeTag == HID_RI_INPUT(0))
    1a38:	c9 57       	subi	r28, 0x79	; 121
    1a3a:	df 4f       	sbci	r29, 0xFF	; 255
    1a3c:	38 81       	ld	r19, Y
    1a3e:	c7 58       	subi	r28, 0x87	; 135
    1a40:	d0 40       	sbci	r29, 0x00	; 0
    1a42:	30 38       	cpi	r19, 0x80	; 128
    1a44:	11 f4       	brne	.+4      	; 0x1a4a <USB_ProcessHIDReport+0x6a6>
					  NewReportItem.ItemType = HID_REPORT_ITEM_In;
    1a46:	1b 8a       	std	Y+19, r1	; 0x13
    1a48:	0c c0       	rjmp	.+24     	; 0x1a62 <USB_ProcessHIDReport+0x6be>
					else if (ItemTypeTag == HID_RI_OUTPUT(0))
    1a4a:	c9 57       	subi	r28, 0x79	; 121
    1a4c:	df 4f       	sbci	r29, 0xFF	; 255
    1a4e:	48 81       	ld	r20, Y
    1a50:	c7 58       	subi	r28, 0x87	; 135
    1a52:	d0 40       	sbci	r29, 0x00	; 0
    1a54:	40 39       	cpi	r20, 0x90	; 144
    1a56:	19 f4       	brne	.+6      	; 0x1a5e <USB_ProcessHIDReport+0x6ba>
					  NewReportItem.ItemType = HID_REPORT_ITEM_Out;
    1a58:	51 e0       	ldi	r21, 0x01	; 1
    1a5a:	5b 8b       	std	Y+19, r21	; 0x13
    1a5c:	02 c0       	rjmp	.+4      	; 0x1a62 <USB_ProcessHIDReport+0x6be>
					else
					  NewReportItem.ItemType = HID_REPORT_ITEM_Feature;
    1a5e:	82 e0       	ldi	r24, 0x02	; 2
    1a60:	8b 8b       	std	Y+19, r24	; 0x13

					NewReportItem.BitOffset = CurrReportIDInfo->ReportSizeBits[NewReportItem.ItemType];
    1a62:	eb 89       	ldd	r30, Y+19	; 0x13
    1a64:	f0 e0       	ldi	r31, 0x00	; 0
    1a66:	ee 0f       	add	r30, r30
    1a68:	ff 1f       	adc	r31, r31
    1a6a:	e8 0d       	add	r30, r8
    1a6c:	f9 1d       	adc	r31, r9
    1a6e:	81 81       	ldd	r24, Z+1	; 0x01
    1a70:	92 81       	ldd	r25, Z+2	; 0x02
    1a72:	9a 8b       	std	Y+18, r25	; 0x12
    1a74:	89 8b       	std	Y+17, r24	; 0x11

					CurrReportIDInfo->ReportSizeBits[NewReportItem.ItemType] += CurrStateTable->Attributes.BitSize;
    1a76:	d6 01       	movw	r26, r12
    1a78:	2c 91       	ld	r18, X
    1a7a:	81 81       	ldd	r24, Z+1	; 0x01
    1a7c:	92 81       	ldd	r25, Z+2	; 0x02
    1a7e:	82 0f       	add	r24, r18
    1a80:	91 1d       	adc	r25, r1
    1a82:	92 83       	std	Z+2, r25	; 0x02
    1a84:	81 83       	std	Z+1, r24	; 0x01

					ParserData->LargestReportSizeBits = MAX(ParserData->LargestReportSizeBits, CurrReportIDInfo->ReportSizeBits[NewReportItem.ItemType]);
    1a86:	eb 89       	ldd	r30, Y+19	; 0x13
    1a88:	f0 e0       	ldi	r31, 0x00	; 0
    1a8a:	ee 0f       	add	r30, r30
    1a8c:	ff 1f       	adc	r31, r31
    1a8e:	e8 0d       	add	r30, r8
    1a90:	f9 1d       	adc	r31, r9
    1a92:	c6 57       	subi	r28, 0x76	; 118
    1a94:	df 4f       	sbci	r29, 0xFF	; 255
    1a96:	a8 81       	ld	r26, Y
    1a98:	b9 81       	ldd	r27, Y+1	; 0x01
    1a9a:	ca 58       	subi	r28, 0x8A	; 138
    1a9c:	d0 40       	sbci	r29, 0x00	; 0
    1a9e:	2d 91       	ld	r18, X+
    1aa0:	3c 91       	ld	r19, X
    1aa2:	81 81       	ldd	r24, Z+1	; 0x01
    1aa4:	92 81       	ldd	r25, Z+2	; 0x02
    1aa6:	82 17       	cp	r24, r18
    1aa8:	93 07       	cpc	r25, r19
    1aaa:	08 f4       	brcc	.+2      	; 0x1aae <USB_ProcessHIDReport+0x70a>
    1aac:	c9 01       	movw	r24, r18
    1aae:	c6 57       	subi	r28, 0x76	; 118
    1ab0:	df 4f       	sbci	r29, 0xFF	; 255
    1ab2:	e8 81       	ld	r30, Y
    1ab4:	f9 81       	ldd	r31, Y+1	; 0x01
    1ab6:	ca 58       	subi	r28, 0x8A	; 138
    1ab8:	d0 40       	sbci	r29, 0x00	; 0
    1aba:	91 83       	std	Z+1, r25	; 0x01
    1abc:	80 83       	st	Z, r24

					if (ParserData->TotalReportItems == HID_MAX_REPORTITEMS)
    1abe:	d1 01       	movw	r26, r2
    1ac0:	8c 91       	ld	r24, X
    1ac2:	84 31       	cpi	r24, 0x14	; 20
    1ac4:	11 f4       	brne	.+4      	; 0x1aca <USB_ProcessHIDReport+0x726>
    1ac6:	83 e0       	ldi	r24, 0x03	; 3
    1ac8:	57 c0       	rjmp	.+174    	; 0x1b78 <USB_ProcessHIDReport+0x7d4>
					  return HID_PARSE_InsufficientReportItems;

					memcpy(&ParserData->ReportItems[ParserData->TotalReportItems],
    1aca:	ba e2       	ldi	r27, 0x2A	; 42
    1acc:	8b 9f       	mul	r24, r27
    1ace:	f0 01       	movw	r30, r0
    1ad0:	11 24       	eor	r1, r1
    1ad2:	31 96       	adiw	r30, 0x01	; 1
    1ad4:	e2 0d       	add	r30, r2
    1ad6:	f3 1d       	adc	r31, r3
    1ad8:	de 01       	movw	r26, r28
    1ada:	51 96       	adiw	r26, 0x11	; 17
    1adc:	8a e2       	ldi	r24, 0x2A	; 42
    1ade:	0d 90       	ld	r0, X+
    1ae0:	01 92       	st	Z+, r0
    1ae2:	81 50       	subi	r24, 0x01	; 1
    1ae4:	e1 f7       	brne	.-8      	; 0x1ade <USB_ProcessHIDReport+0x73a>
					       &NewReportItem, sizeof(HID_ReportItem_t));

					if (!(ReportItemData & HID_IOF_CONSTANT) && CALLBACK_HIDParser_FilterHIDReportItem(&NewReportItem))
    1ae6:	c8 57       	subi	r28, 0x78	; 120
    1ae8:	df 4f       	sbci	r29, 0xFF	; 255
    1aea:	e8 81       	ld	r30, Y
    1aec:	f9 81       	ldd	r31, Y+1	; 0x01
    1aee:	c8 58       	subi	r28, 0x88	; 136
    1af0:	d0 40       	sbci	r29, 0x00	; 0
    1af2:	ef 2b       	or	r30, r31
    1af4:	51 f4       	brne	.+20     	; 0x1b0a <USB_ProcessHIDReport+0x766>
    1af6:	ce 01       	movw	r24, r28
    1af8:	41 96       	adiw	r24, 0x11	; 17
    1afa:	0e 94 39 01 	call	0x272	; 0x272 <CALLBACK_HIDParser_FilterHIDReportItem>
    1afe:	88 23       	and	r24, r24
    1b00:	21 f0       	breq	.+8      	; 0x1b0a <USB_ProcessHIDReport+0x766>
					  ParserData->TotalReportItems++;
    1b02:	d1 01       	movw	r26, r2
    1b04:	8c 91       	ld	r24, X
    1b06:	8f 5f       	subi	r24, 0xFF	; 255
    1b08:	8c 93       	st	X, r24
				CurrCollectionPath = CurrCollectionPath->Parent;
				break;
			case HID_RI_INPUT(0):
			case HID_RI_OUTPUT(0):
			case HID_RI_FEATURE(0):
				for (uint8_t ReportItemNum = 0; ReportItemNum < CurrStateTable->ReportCount; ReportItemNum++)
    1b0a:	ec 96       	adiw	r28, 0x3c	; 60
    1b0c:	bf ad       	ldd	r27, Y+63	; 0x3f
    1b0e:	ec 97       	sbiw	r28, 0x3c	; 60
    1b10:	bf 5f       	subi	r27, 0xFF	; 255
    1b12:	ec 96       	adiw	r28, 0x3c	; 60
    1b14:	bf af       	std	Y+63, r27	; 0x3f
    1b16:	ec 97       	sbiw	r28, 0x3c	; 60
    1b18:	f6 01       	movw	r30, r12
    1b1a:	82 8d       	ldd	r24, Z+26	; 0x1a
    1b1c:	ec 96       	adiw	r28, 0x3c	; 60
    1b1e:	ff ad       	ldd	r31, Y+63	; 0x3f
    1b20:	ec 97       	sbiw	r28, 0x3c	; 60
    1b22:	f8 17       	cp	r31, r24
    1b24:	08 f4       	brcc	.+2      	; 0x1b28 <USB_ProcessHIDReport+0x784>
    1b26:	38 cf       	rjmp	.-400    	; 0x1998 <USB_ProcessHIDReport+0x5f4>
    1b28:	f5 01       	movw	r30, r10
				}

				break;
		}

		if ((HIDReportItem & HID_RI_TYPE_MASK) == HID_RI_TYPE_MAIN)
    1b2a:	c1 58       	subi	r28, 0x81	; 129
    1b2c:	df 4f       	sbci	r29, 0xFF	; 255
    1b2e:	28 81       	ld	r18, Y
    1b30:	39 81       	ldd	r19, Y+1	; 0x01
    1b32:	cf 57       	subi	r28, 0x7F	; 127
    1b34:	d0 40       	sbci	r29, 0x00	; 0
    1b36:	2c 70       	andi	r18, 0x0C	; 12
    1b38:	30 70       	andi	r19, 0x00	; 0
    1b3a:	23 2b       	or	r18, r19
    1b3c:	61 f4       	brne	.+24     	; 0x1b56 <USB_ProcessHIDReport+0x7b2>
    1b3e:	ed 96       	adiw	r28, 0x3d	; 61
    1b40:	1f ae       	std	Y+63, r1	; 0x3f
    1b42:	ed 97       	sbiw	r28, 0x3d	; 61
    1b44:	eb 96       	adiw	r28, 0x3b	; 59
    1b46:	1c ae       	std	Y+60, r1	; 0x3c
    1b48:	1d ae       	std	Y+61, r1	; 0x3d
    1b4a:	1e ae       	std	Y+62, r1	; 0x3e
    1b4c:	1f ae       	std	Y+63, r1	; 0x3f
    1b4e:	eb 97       	sbiw	r28, 0x3b	; 59
    1b50:	44 24       	eor	r4, r4
    1b52:	55 24       	eor	r5, r5
    1b54:	32 01       	movw	r6, r4
    1b56:	5f 01       	movw	r10, r30
	memset(CurrStateTable,   0x00, sizeof(HID_StateTable_t));
	memset(CurrReportIDInfo, 0x00, sizeof(HID_ReportSizeInfo_t));

	ParserData->TotalDeviceReports = 1;

	while (ReportSize)
    1b58:	cd 57       	subi	r28, 0x7D	; 125
    1b5a:	df 4f       	sbci	r29, 0xFF	; 255
    1b5c:	48 81       	ld	r20, Y
    1b5e:	59 81       	ldd	r21, Y+1	; 0x01
    1b60:	c3 58       	subi	r28, 0x83	; 131
    1b62:	d0 40       	sbci	r29, 0x00	; 0
    1b64:	45 2b       	or	r20, r21
    1b66:	09 f0       	breq	.+2      	; 0x1b6a <USB_ProcessHIDReport+0x7c6>
    1b68:	b9 cc       	rjmp	.-1678   	; 0x14dc <USB_ProcessHIDReport+0x138>
			UsageMinMax.Maximum = 0;
			UsageListSize       = 0;
		}
	}

	if (!(ParserData->TotalReportItems))
    1b6a:	d1 01       	movw	r26, r2
    1b6c:	8c 91       	ld	r24, X
    1b6e:	88 23       	and	r24, r24
    1b70:	11 f0       	breq	.+4      	; 0x1b76 <USB_ProcessHIDReport+0x7d2>
    1b72:	80 e0       	ldi	r24, 0x00	; 0
    1b74:	01 c0       	rjmp	.+2      	; 0x1b78 <USB_ProcessHIDReport+0x7d4>
    1b76:	88 e0       	ldi	r24, 0x08	; 8
	  return HID_PARSE_NoUnfilteredReportItems;

	return HID_PARSE_Successful;
}
    1b78:	cb 56       	subi	r28, 0x6B	; 107
    1b7a:	df 4f       	sbci	r29, 0xFF	; 255
    1b7c:	0f b6       	in	r0, 0x3f	; 63
    1b7e:	f8 94       	cli
    1b80:	de bf       	out	0x3e, r29	; 62
    1b82:	0f be       	out	0x3f, r0	; 63
    1b84:	cd bf       	out	0x3d, r28	; 61
    1b86:	cf 91       	pop	r28
    1b88:	df 91       	pop	r29
    1b8a:	1f 91       	pop	r17
    1b8c:	0f 91       	pop	r16
    1b8e:	ff 90       	pop	r15
    1b90:	ef 90       	pop	r14
    1b92:	df 90       	pop	r13
    1b94:	cf 90       	pop	r12
    1b96:	bf 90       	pop	r11
    1b98:	af 90       	pop	r10
    1b9a:	9f 90       	pop	r9
    1b9c:	8f 90       	pop	r8
    1b9e:	7f 90       	pop	r7
    1ba0:	6f 90       	pop	r6
    1ba2:	5f 90       	pop	r5
    1ba4:	4f 90       	pop	r4
    1ba6:	3f 90       	pop	r3
    1ba8:	2f 90       	pop	r2
    1baa:	08 95       	ret

00001bac <DCOMP_HID_Host_NextHIDInterface>:

	return HID_ENUMERROR_NoError;
}

static uint8_t DCOMP_HID_Host_NextHIDInterface(void* const CurrentDescriptor)
{
    1bac:	fc 01       	movw	r30, r24
	USB_Descriptor_Header_t* Header = DESCRIPTOR_PCAST(CurrentDescriptor, USB_Descriptor_Header_t);

	if (Header->Type == DTYPE_Interface)
    1bae:	81 81       	ldd	r24, Z+1	; 0x01
    1bb0:	84 30       	cpi	r24, 0x04	; 4
    1bb2:	29 f4       	brne	.+10     	; 0x1bbe <DCOMP_HID_Host_NextHIDInterface+0x12>
	{
		USB_Descriptor_Interface_t* Interface = DESCRIPTOR_PCAST(CurrentDescriptor, USB_Descriptor_Interface_t);

		if (Interface->Class == HID_CSCP_HIDClass)
    1bb4:	85 81       	ldd	r24, Z+5	; 0x05
    1bb6:	83 30       	cpi	r24, 0x03	; 3
    1bb8:	11 f4       	brne	.+4      	; 0x1bbe <DCOMP_HID_Host_NextHIDInterface+0x12>
    1bba:	80 e0       	ldi	r24, 0x00	; 0
    1bbc:	08 95       	ret
    1bbe:	82 e0       	ldi	r24, 0x02	; 2
		  return DESCRIPTOR_SEARCH_Found;
	}

	return DESCRIPTOR_SEARCH_NotFound;
}
    1bc0:	08 95       	ret

00001bc2 <DCOMP_HID_Host_NextHIDDescriptor>:

static uint8_t DCOMP_HID_Host_NextHIDDescriptor(void* const CurrentDescriptor)
{
	USB_Descriptor_Header_t* Header = DESCRIPTOR_PCAST(CurrentDescriptor, USB_Descriptor_Header_t);

	if (Header->Type == HID_DTYPE_HID)
    1bc2:	fc 01       	movw	r30, r24
    1bc4:	81 81       	ldd	r24, Z+1	; 0x01
    1bc6:	81 32       	cpi	r24, 0x21	; 33
    1bc8:	11 f4       	brne	.+4      	; 0x1bce <DCOMP_HID_Host_NextHIDDescriptor+0xc>
    1bca:	80 e0       	ldi	r24, 0x00	; 0
    1bcc:	08 95       	ret
	  return DESCRIPTOR_SEARCH_Found;
	else if (Header->Type == DTYPE_Interface)
    1bce:	84 30       	cpi	r24, 0x04	; 4
    1bd0:	11 f0       	breq	.+4      	; 0x1bd6 <DCOMP_HID_Host_NextHIDDescriptor+0x14>
    1bd2:	82 e0       	ldi	r24, 0x02	; 2
    1bd4:	08 95       	ret
    1bd6:	81 e0       	ldi	r24, 0x01	; 1
	  return DESCRIPTOR_SEARCH_Fail;
	else
	  return DESCRIPTOR_SEARCH_NotFound;
}
    1bd8:	08 95       	ret

00001bda <HID_Host_IsReportReceived>:
		return USB_Host_SendControlRequest(Buffer);
	}
}

bool HID_Host_IsReportReceived(USB_ClassInfo_HID_Host_t* const HIDInterfaceInfo)
{
    1bda:	fc 01       	movw	r30, r24
	if ((USB_HostState != HOST_STATE_Configured) || !(HIDInterfaceInfo->State.IsActive))
    1bdc:	80 91 0a 05 	lds	r24, 0x050A
    1be0:	8b 30       	cpi	r24, 0x0B	; 11
    1be2:	a1 f4       	brne	.+40     	; 0x1c0c <HID_Host_IsReportReceived+0x32>
    1be4:	87 81       	ldd	r24, Z+7	; 0x07
    1be6:	88 23       	and	r24, r24
    1be8:	89 f0       	breq	.+34     	; 0x1c0c <HID_Host_IsReportReceived+0x32>
	  return false;

	bool ReportReceived;

	Pipe_SelectPipe(HIDInterfaceInfo->Config.DataINPipeNumber);
    1bea:	80 81       	ld	r24, Z
			 *  \param[in] PipeNumber  Index of the pipe to select.
			 */
			static inline void Pipe_SelectPipe(const uint8_t PipeNumber) ATTR_ALWAYS_INLINE;
			static inline void Pipe_SelectPipe(const uint8_t PipeNumber)
			{
				UPNUM = PipeNumber;
    1bec:	80 93 a7 00 	sts	0x00A7, r24

			/** Unfreezes the selected pipe, allowing it to communicate with an attached device. */
			static inline void Pipe_Unfreeze(void) ATTR_ALWAYS_INLINE;
			static inline void Pipe_Unfreeze(void)
			{
				UPCONX &= ~(1 << PFREEZE);
    1bf0:	80 91 a9 00 	lds	r24, 0x00A9
    1bf4:	8f 7b       	andi	r24, 0xBF	; 191
    1bf6:	80 93 a9 00 	sts	0x00A9, r24
			 *  \return Boolean \c true if the current pipe has received an IN packet, \c false otherwise.
			 */
			static inline bool Pipe_IsINReceived(void) ATTR_WARN_UNUSED_RESULT ATTR_ALWAYS_INLINE;
			static inline bool Pipe_IsINReceived(void)
			{
				return ((UPINTX & (1 << RXINI)) ? true : false);
    1bfa:	90 91 a6 00 	lds	r25, 0x00A6
    1bfe:	91 70       	andi	r25, 0x01	; 1

			/** Freezes the selected pipe, preventing it from communicating with an attached device. */
			static inline void Pipe_Freeze(void) ATTR_ALWAYS_INLINE;
			static inline void Pipe_Freeze(void)
			{
				UPCONX |= (1 << PFREEZE);
    1c00:	80 91 a9 00 	lds	r24, 0x00A9
    1c04:	80 64       	ori	r24, 0x40	; 64
    1c06:	80 93 a9 00 	sts	0x00A9, r24
    1c0a:	01 c0       	rjmp	.+2      	; 0x1c0e <HID_Host_IsReportReceived+0x34>

	ReportReceived = Pipe_IsINReceived();

	Pipe_Freeze();

	return ReportReceived;
    1c0c:	90 e0       	ldi	r25, 0x00	; 0
}
    1c0e:	89 2f       	mov	r24, r25
    1c10:	08 95       	ret

00001c12 <HID_Host_SetReportProtocol>:
	return USB_Host_SendControlRequest(NULL);
}

#if !defined(HID_HOST_BOOT_PROTOCOL_ONLY)
uint8_t HID_Host_SetReportProtocol(USB_ClassInfo_HID_Host_t* const HIDInterfaceInfo)
{
    1c12:	cf 92       	push	r12
    1c14:	df 92       	push	r13
    1c16:	ef 92       	push	r14
    1c18:	ff 92       	push	r15
    1c1a:	0f 93       	push	r16
    1c1c:	1f 93       	push	r17
    1c1e:	df 93       	push	r29
    1c20:	cf 93       	push	r28
    1c22:	cd b7       	in	r28, 0x3d	; 61
    1c24:	de b7       	in	r29, 0x3e	; 62
    1c26:	8c 01       	movw	r16, r24

	uint16_t LargestReportSizeBits = HIDInterfaceInfo->Config.HIDParserData->LargestReportSizeBits;
	HIDInterfaceInfo->State.LargestReportSize = (LargestReportSizeBits >> 3) + ((LargestReportSizeBits & 0x07) != 0);

	return 0;
}
    1c28:	cd b6       	in	r12, 0x3d	; 61
    1c2a:	de b6       	in	r13, 0x3e	; 62
#if !defined(HID_HOST_BOOT_PROTOCOL_ONLY)
uint8_t HID_Host_SetReportProtocol(USB_ClassInfo_HID_Host_t* const HIDInterfaceInfo)
{
	uint8_t ErrorCode;

	uint8_t HIDReportData[HIDInterfaceInfo->State.HIDReportSize];
    1c2c:	dc 01       	movw	r26, r24
    1c2e:	50 96       	adiw	r26, 0x10	; 16
    1c30:	4d 91       	ld	r20, X+
    1c32:	5c 91       	ld	r21, X
    1c34:	51 97       	sbiw	r26, 0x11	; 17
    1c36:	ed b7       	in	r30, 0x3d	; 61
    1c38:	fe b7       	in	r31, 0x3e	; 62
    1c3a:	e4 1b       	sub	r30, r20
    1c3c:	f5 0b       	sbc	r31, r21
    1c3e:	0f b6       	in	r0, 0x3f	; 63
    1c40:	f8 94       	cli
    1c42:	fe bf       	out	0x3e, r31	; 62
    1c44:	0f be       	out	0x3f, r0	; 63
    1c46:	ed bf       	out	0x3d, r30	; 61
    1c48:	2d b7       	in	r18, 0x3d	; 61
    1c4a:	3e b7       	in	r19, 0x3e	; 62
    1c4c:	2f 5f       	subi	r18, 0xFF	; 255
    1c4e:	3f 4f       	sbci	r19, 0xFF	; 255

	USB_ControlRequest = (USB_Request_Header_t)
    1c50:	18 96       	adiw	r26, 0x08	; 8
    1c52:	6c 91       	ld	r22, X
    1c54:	81 e8       	ldi	r24, 0x81	; 129
    1c56:	80 93 02 05 	sts	0x0502, r24
    1c5a:	86 e0       	ldi	r24, 0x06	; 6
    1c5c:	80 93 03 05 	sts	0x0503, r24
    1c60:	80 e0       	ldi	r24, 0x00	; 0
    1c62:	92 e2       	ldi	r25, 0x22	; 34
    1c64:	90 93 05 05 	sts	0x0505, r25
    1c68:	80 93 04 05 	sts	0x0504, r24
    1c6c:	60 93 06 05 	sts	0x0506, r22
    1c70:	10 92 07 05 	sts	0x0507, r1
    1c74:	50 93 09 05 	sts	0x0509, r21
    1c78:	40 93 08 05 	sts	0x0508, r20
			 *  \param[in] PipeNumber  Index of the pipe to select.
			 */
			static inline void Pipe_SelectPipe(const uint8_t PipeNumber) ATTR_ALWAYS_INLINE;
			static inline void Pipe_SelectPipe(const uint8_t PipeNumber)
			{
				UPNUM = PipeNumber;
    1c7c:	10 92 a7 00 	sts	0x00A7, r1
			.wLength       = HIDInterfaceInfo->State.HIDReportSize,
		};

	Pipe_SelectPipe(PIPE_CONTROLPIPE);

	if ((ErrorCode = USB_Host_SendControlRequest(HIDReportData)) != HOST_SENDCONTROL_Successful)
    1c80:	f2 2e       	mov	r15, r18
    1c82:	e3 2e       	mov	r14, r19
    1c84:	c9 01       	movw	r24, r18
    1c86:	be d9       	rcall	.-3204   	; 0x1004 <USB_Host_SendControlRequest>
    1c88:	28 2f       	mov	r18, r24
    1c8a:	88 23       	and	r24, r24
    1c8c:	09 f0       	breq	.+2      	; 0x1c90 <HID_Host_SetReportProtocol+0x7e>
    1c8e:	52 c0       	rjmp	.+164    	; 0x1d34 <HID_Host_SetReportProtocol+0x122>
	  return ErrorCode;

	if (HIDInterfaceInfo->State.UsingBootProtocol)
    1c90:	d8 01       	movw	r26, r16
    1c92:	1f 96       	adiw	r26, 0x0f	; 15
    1c94:	8c 91       	ld	r24, X
    1c96:	1f 97       	sbiw	r26, 0x0f	; 15
    1c98:	88 23       	and	r24, r24
    1c9a:	f1 f0       	breq	.+60     	; 0x1cd8 <HID_Host_SetReportProtocol+0xc6>
	{
		USB_ControlRequest = (USB_Request_Header_t)
    1c9c:	18 96       	adiw	r26, 0x08	; 8
    1c9e:	2c 91       	ld	r18, X
    1ca0:	81 e2       	ldi	r24, 0x21	; 33
    1ca2:	80 93 02 05 	sts	0x0502, r24
    1ca6:	8b e0       	ldi	r24, 0x0B	; 11
    1ca8:	80 93 03 05 	sts	0x0503, r24
    1cac:	81 e0       	ldi	r24, 0x01	; 1
    1cae:	90 e0       	ldi	r25, 0x00	; 0
    1cb0:	90 93 05 05 	sts	0x0505, r25
    1cb4:	80 93 04 05 	sts	0x0504, r24
    1cb8:	20 93 06 05 	sts	0x0506, r18
    1cbc:	10 92 07 05 	sts	0x0507, r1
    1cc0:	10 92 09 05 	sts	0x0509, r1
    1cc4:	10 92 08 05 	sts	0x0508, r1
				.wValue        = 1,
				.wIndex        = HIDInterfaceInfo->State.InterfaceNumber,
				.wLength       = 0,
			};

		if ((ErrorCode = USB_Host_SendControlRequest(NULL)) != HOST_SENDCONTROL_Successful)
    1cc8:	80 e0       	ldi	r24, 0x00	; 0
    1cca:	90 e0       	ldi	r25, 0x00	; 0
    1ccc:	9b d9       	rcall	.-3274   	; 0x1004 <USB_Host_SendControlRequest>
    1cce:	28 2f       	mov	r18, r24
    1cd0:	88 23       	and	r24, r24
    1cd2:	81 f5       	brne	.+96     	; 0x1d34 <HID_Host_SetReportProtocol+0x122>
		  return ErrorCode;

		HIDInterfaceInfo->State.UsingBootProtocol = false;
    1cd4:	f8 01       	movw	r30, r16
    1cd6:	17 86       	std	Z+15, r1	; 0x0f
	}

	if (HIDInterfaceInfo->Config.HIDParserData == NULL)
    1cd8:	d8 01       	movw	r26, r16
    1cda:	15 96       	adiw	r26, 0x05	; 5
    1cdc:	4d 91       	ld	r20, X+
    1cde:	5c 91       	ld	r21, X
    1ce0:	16 97       	sbiw	r26, 0x06	; 6
    1ce2:	41 15       	cp	r20, r1
    1ce4:	51 05       	cpc	r21, r1
    1ce6:	11 f4       	brne	.+4      	; 0x1cec <HID_Host_SetReportProtocol+0xda>
    1ce8:	20 e8       	ldi	r18, 0x80	; 128
    1cea:	24 c0       	rjmp	.+72     	; 0x1d34 <HID_Host_SetReportProtocol+0x122>
	  return HID_ERROR_LOGICAL;

	if ((ErrorCode = USB_ProcessHIDReport(HIDReportData, HIDInterfaceInfo->State.HIDReportSize,
    1cec:	f8 01       	movw	r30, r16
    1cee:	60 89       	ldd	r22, Z+16	; 0x10
    1cf0:	71 89       	ldd	r23, Z+17	; 0x11
    1cf2:	8f 2d       	mov	r24, r15
    1cf4:	9e 2d       	mov	r25, r14
    1cf6:	56 db       	rcall	.-2388   	; 0x13a4 <USB_ProcessHIDReport>
    1cf8:	28 2f       	mov	r18, r24
    1cfa:	88 23       	and	r24, r24
    1cfc:	11 f0       	breq	.+4      	; 0x1d02 <HID_Host_SetReportProtocol+0xf0>
	                                      HIDInterfaceInfo->Config.HIDParserData)) != HID_PARSE_Successful)
	{
		return HID_ERROR_LOGICAL | ErrorCode;
    1cfe:	20 68       	ori	r18, 0x80	; 128
    1d00:	19 c0       	rjmp	.+50     	; 0x1d34 <HID_Host_SetReportProtocol+0x122>
	}

	uint16_t LargestReportSizeBits = HIDInterfaceInfo->Config.HIDParserData->LargestReportSizeBits;
    1d02:	d8 01       	movw	r26, r16
    1d04:	15 96       	adiw	r26, 0x05	; 5
    1d06:	ed 91       	ld	r30, X+
    1d08:	fc 91       	ld	r31, X
    1d0a:	16 97       	sbiw	r26, 0x06	; 6
    1d0c:	ea 52       	subi	r30, 0x2A	; 42
    1d0e:	fc 4f       	sbci	r31, 0xFC	; 252
    1d10:	01 90       	ld	r0, Z+
    1d12:	f0 81       	ld	r31, Z
    1d14:	e0 2d       	mov	r30, r0
	HIDInterfaceInfo->State.LargestReportSize = (LargestReportSizeBits >> 3) + ((LargestReportSizeBits & 0x07) != 0);
    1d16:	30 e0       	ldi	r19, 0x00	; 0
    1d18:	cf 01       	movw	r24, r30
    1d1a:	87 70       	andi	r24, 0x07	; 7
    1d1c:	90 70       	andi	r25, 0x00	; 0
    1d1e:	89 2b       	or	r24, r25
    1d20:	09 f0       	breq	.+2      	; 0x1d24 <HID_Host_SetReportProtocol+0x112>
    1d22:	31 e0       	ldi	r19, 0x01	; 1
    1d24:	93 e0       	ldi	r25, 0x03	; 3
    1d26:	f6 95       	lsr	r31
    1d28:	e7 95       	ror	r30
    1d2a:	9a 95       	dec	r25
    1d2c:	e1 f7       	brne	.-8      	; 0x1d26 <HID_Host_SetReportProtocol+0x114>
    1d2e:	3e 0f       	add	r19, r30
    1d30:	f8 01       	movw	r30, r16
    1d32:	32 8b       	std	Z+18, r19	; 0x12

	return 0;
}
    1d34:	82 2f       	mov	r24, r18
    1d36:	0f b6       	in	r0, 0x3f	; 63
    1d38:	f8 94       	cli
    1d3a:	de be       	out	0x3e, r13	; 62
    1d3c:	0f be       	out	0x3f, r0	; 63
    1d3e:	cd be       	out	0x3d, r12	; 61
    1d40:	cf 91       	pop	r28
    1d42:	df 91       	pop	r29
    1d44:	1f 91       	pop	r17
    1d46:	0f 91       	pop	r16
    1d48:	ff 90       	pop	r15
    1d4a:	ef 90       	pop	r14
    1d4c:	df 90       	pop	r13
    1d4e:	cf 90       	pop	r12
    1d50:	08 95       	ret

00001d52 <HID_Host_ReceiveReport>:
}
#endif

uint8_t HID_Host_ReceiveReport(USB_ClassInfo_HID_Host_t* const HIDInterfaceInfo,
                               void* Buffer)
{
    1d52:	cf 93       	push	r28
    1d54:	df 93       	push	r29
    1d56:	dc 01       	movw	r26, r24
	if ((USB_HostState != HOST_STATE_Configured) || !(HIDInterfaceInfo->State.IsActive))
    1d58:	80 91 0a 05 	lds	r24, 0x050A
    1d5c:	8b 30       	cpi	r24, 0x0B	; 11
    1d5e:	09 f0       	breq	.+2      	; 0x1d62 <HID_Host_ReceiveReport+0x10>
    1d60:	3f c0       	rjmp	.+126    	; 0x1de0 <HID_Host_ReceiveReport+0x8e>
    1d62:	17 96       	adiw	r26, 0x07	; 7
    1d64:	8c 91       	ld	r24, X
    1d66:	17 97       	sbiw	r26, 0x07	; 7
    1d68:	88 23       	and	r24, r24
    1d6a:	d1 f1       	breq	.+116    	; 0x1de0 <HID_Host_ReceiveReport+0x8e>
	  return PIPE_READYWAIT_DeviceDisconnected;

	uint8_t ErrorCode;

	Pipe_SelectPipe(HIDInterfaceInfo->Config.DataINPipeNumber);
    1d6c:	8c 91       	ld	r24, X
    1d6e:	80 93 a7 00 	sts	0x00A7, r24

			/** Unfreezes the selected pipe, allowing it to communicate with an attached device. */
			static inline void Pipe_Unfreeze(void) ATTR_ALWAYS_INLINE;
			static inline void Pipe_Unfreeze(void)
			{
				UPCONX &= ~(1 << PFREEZE);
    1d72:	80 91 a9 00 	lds	r24, 0x00A9
    1d76:	8f 7b       	andi	r24, 0xBF	; 191
    1d78:	80 93 a9 00 	sts	0x00A9, r24
	Pipe_Unfreeze();

	uint16_t ReportSize;
	uint8_t* BufferPos = Buffer;
    1d7c:	eb 01       	movw	r28, r22

#if !defined(HID_HOST_BOOT_PROTOCOL_ONLY)
	if (!(HIDInterfaceInfo->State.UsingBootProtocol))
    1d7e:	1f 96       	adiw	r26, 0x0f	; 15
    1d80:	8c 91       	ld	r24, X
    1d82:	1f 97       	sbiw	r26, 0x0f	; 15
    1d84:	88 23       	and	r24, r24
    1d86:	b1 f4       	brne	.+44     	; 0x1db4 <HID_Host_ReceiveReport+0x62>
	{
		uint8_t ReportID = 0;

		if (HIDInterfaceInfo->Config.HIDParserData->UsingReportIDs)
    1d88:	15 96       	adiw	r26, 0x05	; 5
    1d8a:	ed 91       	ld	r30, X+
    1d8c:	fc 91       	ld	r31, X
    1d8e:	16 97       	sbiw	r26, 0x06	; 6
    1d90:	e8 52       	subi	r30, 0x28	; 40
    1d92:	fc 4f       	sbci	r31, 0xFC	; 252
    1d94:	80 81       	ld	r24, Z
    1d96:	88 23       	and	r24, r24
    1d98:	11 f4       	brne	.+4      	; 0x1d9e <HID_Host_ReceiveReport+0x4c>
    1d9a:	60 e0       	ldi	r22, 0x00	; 0
    1d9c:	03 c0       	rjmp	.+6      	; 0x1da4 <HID_Host_ReceiveReport+0x52>
			 *  \return Next byte in the currently selected pipe's FIFO buffer.
			 */
			static inline uint8_t Pipe_Read_8(void) ATTR_WARN_UNUSED_RESULT ATTR_ALWAYS_INLINE;
			static inline uint8_t Pipe_Read_8(void)
			{
				return UPDATX;
    1d9e:	60 91 af 00 	lds	r22, 0x00AF
		{
			ReportID = Pipe_Read_8();
			*(BufferPos++) = ReportID;
    1da2:	69 93       	st	Y+, r22
		}

		ReportSize = USB_GetHIDReportSize(HIDInterfaceInfo->Config.HIDParserData, ReportID, HID_REPORT_ITEM_In);
    1da4:	15 96       	adiw	r26, 0x05	; 5
    1da6:	8d 91       	ld	r24, X+
    1da8:	9c 91       	ld	r25, X
    1daa:	16 97       	sbiw	r26, 0x06	; 6
    1dac:	40 e0       	ldi	r20, 0x00	; 0
    1dae:	cf da       	rcall	.-2658   	; 0x134e <USB_GetHIDReportSize>
    1db0:	bc 01       	movw	r22, r24
    1db2:	04 c0       	rjmp	.+8      	; 0x1dbc <HID_Host_ReceiveReport+0x6a>
			 *  \return Total number of bytes in the currently selected pipe's FIFO buffer.
			 */
			static inline uint16_t Pipe_BytesInPipe(void) ATTR_WARN_UNUSED_RESULT ATTR_ALWAYS_INLINE;
			static inline uint16_t Pipe_BytesInPipe(void)
			{
				return UPBCX;
    1db4:	60 91 f6 00 	lds	r22, 0x00F6
    1db8:	70 91 f7 00 	lds	r23, 0x00F7
#endif
	{
		ReportSize = Pipe_BytesInPipe();
	}

	if ((ErrorCode = Pipe_Read_Stream_LE(BufferPos, ReportSize, NULL)) != PIPE_RWSTREAM_NoError)
    1dbc:	ce 01       	movw	r24, r28
    1dbe:	40 e0       	ldi	r20, 0x00	; 0
    1dc0:	50 e0       	ldi	r21, 0x00	; 0
    1dc2:	01 d8       	rcall	.-4094   	; 0xdc6 <Pipe_Read_Stream_LE>
    1dc4:	98 2f       	mov	r25, r24
    1dc6:	88 23       	and	r24, r24
    1dc8:	61 f4       	brne	.+24     	; 0x1de2 <HID_Host_ReceiveReport+0x90>
			 *  \ingroup Group_PipePacketManagement_AVR8
			 */
			static inline void Pipe_ClearIN(void) ATTR_ALWAYS_INLINE;
			static inline void Pipe_ClearIN(void)
			{
				UPINTX &= ~((1 << RXINI) | (1 << FIFOCON));
    1dca:	80 91 a6 00 	lds	r24, 0x00A6
    1dce:	8e 77       	andi	r24, 0x7E	; 126
    1dd0:	80 93 a6 00 	sts	0x00A6, r24

			/** Freezes the selected pipe, preventing it from communicating with an attached device. */
			static inline void Pipe_Freeze(void) ATTR_ALWAYS_INLINE;
			static inline void Pipe_Freeze(void)
			{
				UPCONX |= (1 << PFREEZE);
    1dd4:	80 91 a9 00 	lds	r24, 0x00A9
    1dd8:	80 64       	ori	r24, 0x40	; 64
    1dda:	80 93 a9 00 	sts	0x00A9, r24
    1dde:	01 c0       	rjmp	.+2      	; 0x1de2 <HID_Host_ReceiveReport+0x90>
	  return ErrorCode;

	Pipe_ClearIN();
	Pipe_Freeze();

	return PIPE_RWSTREAM_NoError;
    1de0:	92 e0       	ldi	r25, 0x02	; 2
}
    1de2:	89 2f       	mov	r24, r25
    1de4:	df 91       	pop	r29
    1de6:	cf 91       	pop	r28
    1de8:	08 95       	ret

00001dea <HID_Host_ConfigurePipes>:
#include "HID.h"

uint8_t HID_Host_ConfigurePipes(USB_ClassInfo_HID_Host_t* const HIDInterfaceInfo,
                                uint16_t ConfigDescriptorSize,
                                void* ConfigDescriptorData)
{
    1dea:	2f 92       	push	r2
    1dec:	3f 92       	push	r3
    1dee:	4f 92       	push	r4
    1df0:	5f 92       	push	r5
    1df2:	6f 92       	push	r6
    1df4:	7f 92       	push	r7
    1df6:	8f 92       	push	r8
    1df8:	9f 92       	push	r9
    1dfa:	af 92       	push	r10
    1dfc:	bf 92       	push	r11
    1dfe:	cf 92       	push	r12
    1e00:	df 92       	push	r13
    1e02:	ef 92       	push	r14
    1e04:	ff 92       	push	r15
    1e06:	0f 93       	push	r16
    1e08:	1f 93       	push	r17
    1e0a:	df 93       	push	r29
    1e0c:	cf 93       	push	r28
    1e0e:	00 d0       	rcall	.+0      	; 0x1e10 <HID_Host_ConfigurePipes+0x26>
    1e10:	00 d0       	rcall	.+0      	; 0x1e12 <HID_Host_ConfigurePipes+0x28>
    1e12:	cd b7       	in	r28, 0x3d	; 61
    1e14:	de b7       	in	r29, 0x3e	; 62
    1e16:	6c 01       	movw	r12, r24
    1e18:	7a 83       	std	Y+2, r23	; 0x02
    1e1a:	69 83       	std	Y+1, r22	; 0x01
    1e1c:	5c 83       	std	Y+4, r21	; 0x04
    1e1e:	4b 83       	std	Y+3, r20	; 0x03
	USB_Descriptor_Endpoint_t*  DataINEndpoint  = NULL;
	USB_Descriptor_Endpoint_t*  DataOUTEndpoint = NULL;
	USB_Descriptor_Interface_t* HIDInterface    = NULL;
	USB_HID_Descriptor_HID_t*   HIDDescriptor   = NULL;

	memset(&HIDInterfaceInfo->State, 0x00, sizeof(HIDInterfaceInfo->State));
    1e20:	07 96       	adiw	r24, 0x07	; 7
    1e22:	fc 01       	movw	r30, r24
    1e24:	8c e0       	ldi	r24, 0x0C	; 12
    1e26:	df 01       	movw	r26, r30
    1e28:	1d 92       	st	X+, r1
    1e2a:	8a 95       	dec	r24
    1e2c:	e9 f7       	brne	.-6      	; 0x1e28 <HID_Host_ConfigurePipes+0x3e>

	if (DESCRIPTOR_TYPE(ConfigDescriptorData) != DTYPE_Configuration)
    1e2e:	eb 81       	ldd	r30, Y+3	; 0x03
    1e30:	fc 81       	ldd	r31, Y+4	; 0x04
    1e32:	81 81       	ldd	r24, Z+1	; 0x01
    1e34:	82 30       	cpi	r24, 0x02	; 2
    1e36:	11 f0       	breq	.+4      	; 0x1e3c <HID_Host_ConfigurePipes+0x52>
    1e38:	81 e0       	ldi	r24, 0x01	; 1
    1e3a:	ad c0       	rjmp	.+346    	; 0x1f96 <HID_Host_ConfigurePipes+0x1ac>
    1e3c:	66 24       	eor	r6, r6
    1e3e:	77 24       	eor	r7, r7
    1e40:	aa 24       	eor	r10, r10
    1e42:	bb 24       	eor	r11, r11
    1e44:	44 24       	eor	r4, r4
    1e46:	55 24       	eor	r5, r5
    1e48:	22 24       	eor	r2, r2
    1e4a:	33 24       	eor	r3, r3
	  return HID_ENUMERROR_InvalidConfigDescriptor;

	while (!(DataINEndpoint) || !(DataOUTEndpoint))
	{
		if (!(HIDInterface) ||
    1e4c:	53 e0       	ldi	r21, 0x03	; 3
    1e4e:	e5 2e       	mov	r14, r21
    1e50:	f1 2c       	mov	r15, r1
    1e52:	ec 0e       	add	r14, r28
    1e54:	fd 1e       	adc	r15, r29
    1e56:	8e 01       	movw	r16, r28
    1e58:	0f 5f       	subi	r16, 0xFF	; 255
    1e5a:	1f 4f       	sbci	r17, 0xFF	; 255
    1e5c:	41 14       	cp	r4, r1
    1e5e:	51 04       	cpc	r5, r1
    1e60:	39 f0       	breq	.+14     	; 0x1e70 <HID_Host_ConfigurePipes+0x86>
    1e62:	c8 01       	movw	r24, r16
    1e64:	b7 01       	movw	r22, r14
    1e66:	42 ee       	ldi	r20, 0xE2	; 226
    1e68:	5f e0       	ldi	r21, 0x0F	; 15
    1e6a:	04 d8       	rcall	.-4088   	; 0xe74 <USB_GetNextDescriptorComp>
    1e6c:	88 23       	and	r24, r24
    1e6e:	31 f1       	breq	.+76     	; 0x1ebc <HID_Host_ConfigurePipes+0xd2>
		    USB_GetNextDescriptorComp(&ConfigDescriptorSize, &ConfigDescriptorData,
		                              DCOMP_HID_Host_NextHIDInterfaceEndpoint) != DESCRIPTOR_SEARCH_COMP_Found)
		{
			if (DataINEndpoint || DataOUTEndpoint)
    1e70:	61 14       	cp	r6, r1
    1e72:	71 04       	cpc	r7, r1
    1e74:	89 f5       	brne	.+98     	; 0x1ed8 <HID_Host_ConfigurePipes+0xee>
    1e76:	a1 14       	cp	r10, r1
    1e78:	b1 04       	cpc	r11, r1
    1e7a:	71 f5       	brne	.+92     	; 0x1ed8 <HID_Host_ConfigurePipes+0xee>
			  break;

			do
			{
				if (USB_GetNextDescriptorComp(&ConfigDescriptorSize, &ConfigDescriptorData,
    1e7c:	c8 01       	movw	r24, r16
    1e7e:	b7 01       	movw	r22, r14
    1e80:	46 ed       	ldi	r20, 0xD6	; 214
    1e82:	5d e0       	ldi	r21, 0x0D	; 13
    1e84:	0e 94 3a 07 	call	0xe74	; 0xe74 <USB_GetNextDescriptorComp>
    1e88:	88 23       	and	r24, r24
    1e8a:	09 f0       	breq	.+2      	; 0x1e8e <HID_Host_ConfigurePipes+0xa4>
    1e8c:	83 c0       	rjmp	.+262    	; 0x1f94 <HID_Host_ConfigurePipes+0x1aa>
				                              DCOMP_HID_Host_NextHIDInterface) != DESCRIPTOR_SEARCH_COMP_Found)
				{
					return HID_ENUMERROR_NoCompatibleInterfaceFound;
				}

				HIDInterface = DESCRIPTOR_PCAST(ConfigDescriptorData, USB_Descriptor_Interface_t);
    1e8e:	4b 80       	ldd	r4, Y+3	; 0x03
    1e90:	5c 80       	ldd	r5, Y+4	; 0x04
			} while (HIDInterfaceInfo->Config.HIDInterfaceProtocol &&
					 (HIDInterface->Protocol != HIDInterfaceInfo->Config.HIDInterfaceProtocol));
    1e92:	f6 01       	movw	r30, r12
    1e94:	94 81       	ldd	r25, Z+4	; 0x04
    1e96:	99 23       	and	r25, r25
    1e98:	29 f0       	breq	.+10     	; 0x1ea4 <HID_Host_ConfigurePipes+0xba>
    1e9a:	d2 01       	movw	r26, r4
    1e9c:	17 96       	adiw	r26, 0x07	; 7
    1e9e:	8c 91       	ld	r24, X
    1ea0:	89 17       	cp	r24, r25
    1ea2:	61 f7       	brne	.-40     	; 0x1e7c <HID_Host_ConfigurePipes+0x92>

			if (USB_GetNextDescriptorComp(&ConfigDescriptorSize, &ConfigDescriptorData,
    1ea4:	c8 01       	movw	r24, r16
    1ea6:	b7 01       	movw	r22, r14
    1ea8:	41 ee       	ldi	r20, 0xE1	; 225
    1eaa:	5d e0       	ldi	r21, 0x0D	; 13
    1eac:	0e 94 3a 07 	call	0xe74	; 0xe74 <USB_GetNextDescriptorComp>
    1eb0:	88 23       	and	r24, r24
    1eb2:	09 f0       	breq	.+2      	; 0x1eb6 <HID_Host_ConfigurePipes+0xcc>
    1eb4:	6f c0       	rjmp	.+222    	; 0x1f94 <HID_Host_ConfigurePipes+0x1aa>
			                              DCOMP_HID_Host_NextHIDDescriptor) != DESCRIPTOR_SEARCH_COMP_Found)
			{
				return HID_ENUMERROR_NoCompatibleInterfaceFound;
			}

			HIDDescriptor = DESCRIPTOR_PCAST(ConfigDescriptorData, USB_HID_Descriptor_HID_t);
    1eb6:	2b 80       	ldd	r2, Y+3	; 0x03
    1eb8:	3c 80       	ldd	r3, Y+4	; 0x04
    1eba:	d0 cf       	rjmp	.-96     	; 0x1e5c <HID_Host_ConfigurePipes+0x72>
			DataOUTEndpoint = NULL;

			continue;
		}

		USB_Descriptor_Endpoint_t* EndpointData = DESCRIPTOR_PCAST(ConfigDescriptorData, USB_Descriptor_Endpoint_t);
    1ebc:	eb 81       	ldd	r30, Y+3	; 0x03
    1ebe:	fc 81       	ldd	r31, Y+4	; 0x04

		if ((EndpointData->EndpointAddress & ENDPOINT_DIR_MASK) == ENDPOINT_DIR_IN)
    1ec0:	82 81       	ldd	r24, Z+2	; 0x02
    1ec2:	87 fd       	sbrc	r24, 7
    1ec4:	02 c0       	rjmp	.+4      	; 0x1eca <HID_Host_ConfigurePipes+0xe0>
    1ec6:	5f 01       	movw	r10, r30
    1ec8:	01 c0       	rjmp	.+2      	; 0x1ecc <HID_Host_ConfigurePipes+0xe2>
    1eca:	3f 01       	movw	r6, r30
	memset(&HIDInterfaceInfo->State, 0x00, sizeof(HIDInterfaceInfo->State));

	if (DESCRIPTOR_TYPE(ConfigDescriptorData) != DTYPE_Configuration)
	  return HID_ENUMERROR_InvalidConfigDescriptor;

	while (!(DataINEndpoint) || !(DataOUTEndpoint))
    1ecc:	61 14       	cp	r6, r1
    1ece:	71 04       	cpc	r7, r1
    1ed0:	29 f2       	breq	.-118    	; 0x1e5c <HID_Host_ConfigurePipes+0x72>
    1ed2:	a1 14       	cp	r10, r1
    1ed4:	b1 04       	cpc	r11, r1
    1ed6:	11 f2       	breq	.-124    	; 0x1e5c <HID_Host_ConfigurePipes+0x72>
    1ed8:	99 24       	eor	r9, r9
    1eda:	93 94       	inc	r9
			Type            = EP_TYPE_INTERRUPT;
			DoubleBanked    = HIDInterfaceInfo->Config.DataOUTPipeDoubleBank;
			InterruptPeriod = DataOUTEndpoint->PollingIntervalMS;

			HIDInterfaceInfo->State.DataOUTPipeSize   = DataOUTEndpoint->EndpointSize;
			HIDInterfaceInfo->State.DeviceUsesOUTPipe = true;
    1edc:	88 24       	eor	r8, r8
    1ede:	83 94       	inc	r8
		uint8_t  Token;
		uint8_t  EndpointAddress;
		uint8_t  InterruptPeriod;
		bool     DoubleBanked;

		if (PipeNum == HIDInterfaceInfo->Config.DataINPipeNumber)
    1ee0:	f6 01       	movw	r30, r12
    1ee2:	80 81       	ld	r24, Z
    1ee4:	98 16       	cp	r9, r24
    1ee6:	79 f4       	brne	.+30     	; 0x1f06 <HID_Host_ConfigurePipes+0x11c>
		{
			Size            = le16_to_cpu(DataINEndpoint->EndpointSize);
    1ee8:	d3 01       	movw	r26, r6
    1eea:	14 96       	adiw	r26, 0x04	; 4
    1eec:	0d 91       	ld	r16, X+
    1eee:	1c 91       	ld	r17, X
    1ef0:	15 97       	sbiw	r26, 0x05	; 5
			EndpointAddress = DataINEndpoint->EndpointAddress;
    1ef2:	12 96       	adiw	r26, 0x02	; 2
    1ef4:	2c 91       	ld	r18, X
    1ef6:	12 97       	sbiw	r26, 0x02	; 2
			Token           = PIPE_TOKEN_IN;
			Type            = EP_TYPE_INTERRUPT;
			DoubleBanked    = HIDInterfaceInfo->Config.DataINPipeDoubleBank;
    1ef8:	81 81       	ldd	r24, Z+1	; 0x01
			InterruptPeriod = DataINEndpoint->PollingIntervalMS;
    1efa:	16 96       	adiw	r26, 0x06	; 6
    1efc:	fc 90       	ld	r15, X

			HIDInterfaceInfo->State.DataINPipeSize = DataINEndpoint->EndpointSize;
    1efe:	12 87       	std	Z+10, r17	; 0x0a
    1f00:	01 87       	std	Z+9, r16	; 0x09
    1f02:	40 e1       	ldi	r20, 0x10	; 16
    1f04:	16 c0       	rjmp	.+44     	; 0x1f32 <HID_Host_ConfigurePipes+0x148>
		}
		else if (PipeNum == HIDInterfaceInfo->Config.DataOUTPipeNumber)
    1f06:	f6 01       	movw	r30, r12
    1f08:	82 81       	ldd	r24, Z+2	; 0x02
    1f0a:	98 16       	cp	r9, r24
    1f0c:	21 f5       	brne	.+72     	; 0x1f56 <HID_Host_ConfigurePipes+0x16c>
		{
			if (DataOUTEndpoint == NULL)
    1f0e:	a1 14       	cp	r10, r1
    1f10:	b1 04       	cpc	r11, r1
    1f12:	09 f1       	breq	.+66     	; 0x1f56 <HID_Host_ConfigurePipes+0x16c>
			  continue;
		
			Size            = le16_to_cpu(DataOUTEndpoint->EndpointSize);
    1f14:	d5 01       	movw	r26, r10
    1f16:	14 96       	adiw	r26, 0x04	; 4
    1f18:	0d 91       	ld	r16, X+
    1f1a:	1c 91       	ld	r17, X
    1f1c:	15 97       	sbiw	r26, 0x05	; 5
			EndpointAddress = DataOUTEndpoint->EndpointAddress;
    1f1e:	12 96       	adiw	r26, 0x02	; 2
    1f20:	2c 91       	ld	r18, X
    1f22:	12 97       	sbiw	r26, 0x02	; 2
			Token           = PIPE_TOKEN_OUT;
			Type            = EP_TYPE_INTERRUPT;
			DoubleBanked    = HIDInterfaceInfo->Config.DataOUTPipeDoubleBank;
    1f24:	83 81       	ldd	r24, Z+3	; 0x03
			InterruptPeriod = DataOUTEndpoint->PollingIntervalMS;
    1f26:	16 96       	adiw	r26, 0x06	; 6
    1f28:	fc 90       	ld	r15, X

			HIDInterfaceInfo->State.DataOUTPipeSize   = DataOUTEndpoint->EndpointSize;
    1f2a:	14 87       	std	Z+12, r17	; 0x0c
    1f2c:	03 87       	std	Z+11, r16	; 0x0b
			HIDInterfaceInfo->State.DeviceUsesOUTPipe = true;
    1f2e:	86 86       	std	Z+14, r8	; 0x0e
    1f30:	40 e2       	ldi	r20, 0x20	; 32
		else
		{
			continue;
		}

		if (!(Pipe_ConfigurePipe(PipeNum, Type, Token, EndpointAddress, Size,
    1f32:	88 23       	and	r24, r24
    1f34:	11 f4       	brne	.+4      	; 0x1f3a <HID_Host_ConfigurePipes+0x150>
    1f36:	90 e0       	ldi	r25, 0x00	; 0
    1f38:	01 c0       	rjmp	.+2      	; 0x1f3c <HID_Host_ConfigurePipes+0x152>
    1f3a:	94 e0       	ldi	r25, 0x04	; 4
    1f3c:	89 2d       	mov	r24, r9
    1f3e:	63 e0       	ldi	r22, 0x03	; 3
    1f40:	e9 2e       	mov	r14, r25
    1f42:	0e 94 0f 05 	call	0xa1e	; 0xa1e <Pipe_ConfigurePipe>
    1f46:	88 23       	and	r24, r24
    1f48:	11 f4       	brne	.+4      	; 0x1f4e <HID_Host_ConfigurePipes+0x164>
    1f4a:	83 e0       	ldi	r24, 0x03	; 3
    1f4c:	24 c0       	rjmp	.+72     	; 0x1f96 <HID_Host_ConfigurePipes+0x1ac>
		                         DoubleBanked ? PIPE_BANK_DOUBLE : PIPE_BANK_SINGLE)))
		{
			return HID_ENUMERROR_PipeConfigurationFailed;
		}
		
		if (InterruptPeriod)
    1f4e:	ff 20       	and	r15, r15
    1f50:	11 f0       	breq	.+4      	; 0x1f56 <HID_Host_ConfigurePipes+0x16c>
			 *  \param[in] Milliseconds  Number of milliseconds between each pipe poll.
			 */
			static inline void Pipe_SetInterruptPeriod(const uint8_t Milliseconds) ATTR_ALWAYS_INLINE;
			static inline void Pipe_SetInterruptPeriod(const uint8_t Milliseconds)
			{
				UPCFG2X = Milliseconds;
    1f52:	f0 92 ad 00 	sts	0x00AD, r15
		  DataINEndpoint  = EndpointData;
		else
		  DataOUTEndpoint = EndpointData;
	}

	for (uint8_t PipeNum = 1; PipeNum < PIPE_TOTAL_PIPES; PipeNum++)
    1f56:	93 94       	inc	r9
    1f58:	b7 e0       	ldi	r27, 0x07	; 7
    1f5a:	9b 16       	cp	r9, r27
    1f5c:	09 f6       	brne	.-126    	; 0x1ee0 <HID_Host_ConfigurePipes+0xf6>
		
		if (InterruptPeriod)
		  Pipe_SetInterruptPeriod(InterruptPeriod);
	}

	HIDInterfaceInfo->State.InterfaceNumber      = HIDInterface->InterfaceNumber;
    1f5e:	f2 01       	movw	r30, r4
    1f60:	82 81       	ldd	r24, Z+2	; 0x02
    1f62:	d6 01       	movw	r26, r12
    1f64:	18 96       	adiw	r26, 0x08	; 8
    1f66:	8c 93       	st	X, r24
    1f68:	18 97       	sbiw	r26, 0x08	; 8
	HIDInterfaceInfo->State.HIDReportSize        = LE16_TO_CPU(HIDDescriptor->HIDReportLength);
    1f6a:	f1 01       	movw	r30, r2
    1f6c:	87 81       	ldd	r24, Z+7	; 0x07
    1f6e:	90 85       	ldd	r25, Z+8	; 0x08
    1f70:	51 96       	adiw	r26, 0x11	; 17
    1f72:	9c 93       	st	X, r25
    1f74:	8e 93       	st	-X, r24
    1f76:	50 97       	sbiw	r26, 0x10	; 16
	HIDInterfaceInfo->State.SupportsBootProtocol = (HIDInterface->SubClass != HID_CSCP_NonBootProtocol);
    1f78:	90 e0       	ldi	r25, 0x00	; 0
    1f7a:	d2 01       	movw	r26, r4
    1f7c:	16 96       	adiw	r26, 0x06	; 6
    1f7e:	8c 91       	ld	r24, X
    1f80:	81 11       	cpse	r24, r1
    1f82:	91 e0       	ldi	r25, 0x01	; 1
    1f84:	f6 01       	movw	r30, r12
    1f86:	95 87       	std	Z+13, r25	; 0x0d
	HIDInterfaceInfo->State.LargestReportSize    = 8;
    1f88:	88 e0       	ldi	r24, 0x08	; 8
    1f8a:	82 8b       	std	Z+18, r24	; 0x12
	HIDInterfaceInfo->State.IsActive             = true;
    1f8c:	81 e0       	ldi	r24, 0x01	; 1
    1f8e:	87 83       	std	Z+7, r24	; 0x07
    1f90:	80 e0       	ldi	r24, 0x00	; 0
    1f92:	01 c0       	rjmp	.+2      	; 0x1f96 <HID_Host_ConfigurePipes+0x1ac>

	return HID_ENUMERROR_NoError;
    1f94:	82 e0       	ldi	r24, 0x02	; 2
}
    1f96:	0f 90       	pop	r0
    1f98:	0f 90       	pop	r0
    1f9a:	0f 90       	pop	r0
    1f9c:	0f 90       	pop	r0
    1f9e:	cf 91       	pop	r28
    1fa0:	df 91       	pop	r29
    1fa2:	1f 91       	pop	r17
    1fa4:	0f 91       	pop	r16
    1fa6:	ff 90       	pop	r15
    1fa8:	ef 90       	pop	r14
    1faa:	df 90       	pop	r13
    1fac:	cf 90       	pop	r12
    1fae:	bf 90       	pop	r11
    1fb0:	af 90       	pop	r10
    1fb2:	9f 90       	pop	r9
    1fb4:	8f 90       	pop	r8
    1fb6:	7f 90       	pop	r7
    1fb8:	6f 90       	pop	r6
    1fba:	5f 90       	pop	r5
    1fbc:	4f 90       	pop	r4
    1fbe:	3f 90       	pop	r3
    1fc0:	2f 90       	pop	r2
    1fc2:	08 95       	ret

00001fc4 <DCOMP_HID_Host_NextHIDInterfaceEndpoint>:
	else
	  return DESCRIPTOR_SEARCH_NotFound;
}

static uint8_t DCOMP_HID_Host_NextHIDInterfaceEndpoint(void* const CurrentDescriptor)
{
    1fc4:	fc 01       	movw	r30, r24
	USB_Descriptor_Header_t* Header = DESCRIPTOR_PCAST(CurrentDescriptor, USB_Descriptor_Header_t);

	if (Header->Type == DTYPE_Endpoint)
    1fc6:	81 81       	ldd	r24, Z+1	; 0x01
    1fc8:	85 30       	cpi	r24, 0x05	; 5
    1fca:	31 f4       	brne	.+12     	; 0x1fd8 <DCOMP_HID_Host_NextHIDInterfaceEndpoint+0x14>
	{
		USB_Descriptor_Endpoint_t* Endpoint = DESCRIPTOR_PCAST(CurrentDescriptor, USB_Descriptor_Endpoint_t);

		if (!(Pipe_IsEndpointBound(Endpoint->EndpointAddress)))
    1fcc:	82 81       	ldd	r24, Z+2	; 0x02
    1fce:	0e 94 81 05 	call	0xb02	; 0xb02 <Pipe_IsEndpointBound>
    1fd2:	88 23       	and	r24, r24
    1fd4:	29 f4       	brne	.+10     	; 0x1fe0 <DCOMP_HID_Host_NextHIDInterfaceEndpoint+0x1c>
    1fd6:	08 95       	ret
		  return DESCRIPTOR_SEARCH_Found;
	}
	else if (Header->Type == DTYPE_Interface)
    1fd8:	84 30       	cpi	r24, 0x04	; 4
    1fda:	11 f4       	brne	.+4      	; 0x1fe0 <DCOMP_HID_Host_NextHIDInterfaceEndpoint+0x1c>
    1fdc:	81 e0       	ldi	r24, 0x01	; 1
    1fde:	08 95       	ret
    1fe0:	82 e0       	ldi	r24, 0x02	; 2
	{
		return DESCRIPTOR_SEARCH_Fail;
	}

	return DESCRIPTOR_SEARCH_NotFound;
}
    1fe2:	08 95       	ret

00001fe4 <Serial_putchar>:

FILE USARTSerialStream;

int Serial_putchar(char DataByte,
                   FILE *Stream)
{
    1fe4:	98 2f       	mov	r25, r24
			 *  \param[in] DataByte  Byte to transmit through the USART.
			 */
			static inline void Serial_SendByte(const char DataByte) ATTR_ALWAYS_INLINE;
			static inline void Serial_SendByte(const char DataByte)
			{
				while (!(UCSR1A & (1 << UDRE1)));
    1fe6:	80 91 c8 00 	lds	r24, 0x00C8
    1fea:	85 ff       	sbrs	r24, 5
    1fec:	fc cf       	rjmp	.-8      	; 0x1fe6 <Serial_putchar+0x2>
				UDR1 = DataByte;
    1fee:	90 93 ce 00 	sts	0x00CE, r25
	(void)Stream;

	Serial_SendByte(DataByte);
	return 0;
}
    1ff2:	80 e0       	ldi	r24, 0x00	; 0
    1ff4:	90 e0       	ldi	r25, 0x00	; 0
    1ff6:	08 95       	ret

00001ff8 <Serial_getchar>:
			 *  \return Boolean \c true if a character has been received, \c false otherwise.
			 */
			static inline bool Serial_IsCharReceived(void) ATTR_WARN_UNUSED_RESULT ATTR_ALWAYS_INLINE;
			static inline bool Serial_IsCharReceived(void)
			{
				return ((UCSR1A & (1 << RXC1)) ? true : false);
    1ff8:	80 91 c8 00 	lds	r24, 0x00C8

int Serial_getchar(FILE *Stream)
{
	(void)Stream;

	if (!(Serial_IsCharReceived()))
    1ffc:	87 fd       	sbrc	r24, 7
    1ffe:	03 c0       	rjmp	.+6      	; 0x2006 <Serial_getchar+0xe>
    2000:	2e ef       	ldi	r18, 0xFE	; 254
    2002:	3f ef       	ldi	r19, 0xFF	; 255
    2004:	0b c0       	rjmp	.+22     	; 0x201c <Serial_getchar+0x24>
    2006:	80 91 c8 00 	lds	r24, 0x00C8
			 *  \return Next byte received from the USART, or a negative value if no byte has been received.
			 */
			static inline int16_t Serial_ReceiveByte(void) ATTR_ALWAYS_INLINE;
			static inline int16_t Serial_ReceiveByte(void)
			{
				if (!(Serial_IsCharReceived()))
    200a:	87 fd       	sbrc	r24, 7
    200c:	03 c0       	rjmp	.+6      	; 0x2014 <Serial_getchar+0x1c>
    200e:	2f ef       	ldi	r18, 0xFF	; 255
    2010:	3f ef       	ldi	r19, 0xFF	; 255
    2012:	04 c0       	rjmp	.+8      	; 0x201c <Serial_getchar+0x24>
				  return -1;
				
				return UDR1;
    2014:	80 91 ce 00 	lds	r24, 0x00CE
    2018:	28 2f       	mov	r18, r24
    201a:	30 e0       	ldi	r19, 0x00	; 0
	  return _FDEV_EOF;

	return Serial_ReceiveByte();
}
    201c:	c9 01       	movw	r24, r18
    201e:	08 95       	ret

00002020 <printf_P>:
    2020:	df 93       	push	r29
    2022:	cf 93       	push	r28
    2024:	cd b7       	in	r28, 0x3d	; 61
    2026:	de b7       	in	r29, 0x3e	; 62
    2028:	fe 01       	movw	r30, r28
    202a:	35 96       	adiw	r30, 0x05	; 5
    202c:	61 91       	ld	r22, Z+
    202e:	71 91       	ld	r23, Z+
    2030:	a0 91 1b 05 	lds	r26, 0x051B
    2034:	b0 91 1c 05 	lds	r27, 0x051C
    2038:	13 96       	adiw	r26, 0x03	; 3
    203a:	8c 91       	ld	r24, X
    203c:	13 97       	sbiw	r26, 0x03	; 3
    203e:	88 60       	ori	r24, 0x08	; 8
    2040:	13 96       	adiw	r26, 0x03	; 3
    2042:	8c 93       	st	X, r24
    2044:	80 91 1b 05 	lds	r24, 0x051B
    2048:	90 91 1c 05 	lds	r25, 0x051C
    204c:	af 01       	movw	r20, r30
    204e:	3f d0       	rcall	.+126    	; 0x20ce <vfprintf>
    2050:	e0 91 1b 05 	lds	r30, 0x051B
    2054:	f0 91 1c 05 	lds	r31, 0x051C
    2058:	23 81       	ldd	r18, Z+3	; 0x03
    205a:	27 7f       	andi	r18, 0xF7	; 247
    205c:	23 83       	std	Z+3, r18	; 0x03
    205e:	cf 91       	pop	r28
    2060:	df 91       	pop	r29
    2062:	08 95       	ret

00002064 <puts_P>:
    2064:	0f 93       	push	r16
    2066:	1f 93       	push	r17
    2068:	cf 93       	push	r28
    206a:	df 93       	push	r29
    206c:	ec 01       	movw	r28, r24
    206e:	e0 91 1b 05 	lds	r30, 0x051B
    2072:	f0 91 1c 05 	lds	r31, 0x051C
    2076:	83 81       	ldd	r24, Z+3	; 0x03
    2078:	81 ff       	sbrs	r24, 1
    207a:	21 c0       	rjmp	.+66     	; 0x20be <puts_P+0x5a>
    207c:	00 e0       	ldi	r16, 0x00	; 0
    207e:	10 e0       	ldi	r17, 0x00	; 0
    2080:	0e c0       	rjmp	.+28     	; 0x209e <puts_P+0x3a>
    2082:	e0 91 1b 05 	lds	r30, 0x051B
    2086:	f0 91 1c 05 	lds	r31, 0x051C
    208a:	20 85       	ldd	r18, Z+8	; 0x08
    208c:	31 85       	ldd	r19, Z+9	; 0x09
    208e:	bf 01       	movw	r22, r30
    2090:	f9 01       	movw	r30, r18
    2092:	09 95       	icall
    2094:	89 2b       	or	r24, r25
    2096:	11 f0       	breq	.+4      	; 0x209c <puts_P+0x38>
    2098:	0f ef       	ldi	r16, 0xFF	; 255
    209a:	1f ef       	ldi	r17, 0xFF	; 255
    209c:	21 96       	adiw	r28, 0x01	; 1
    209e:	fe 01       	movw	r30, r28
    20a0:	84 91       	lpm	r24, Z+
    20a2:	88 23       	and	r24, r24
    20a4:	71 f7       	brne	.-36     	; 0x2082 <puts_P+0x1e>
    20a6:	e0 91 1b 05 	lds	r30, 0x051B
    20aa:	f0 91 1c 05 	lds	r31, 0x051C
    20ae:	20 85       	ldd	r18, Z+8	; 0x08
    20b0:	31 85       	ldd	r19, Z+9	; 0x09
    20b2:	8a e0       	ldi	r24, 0x0A	; 10
    20b4:	bf 01       	movw	r22, r30
    20b6:	f9 01       	movw	r30, r18
    20b8:	09 95       	icall
    20ba:	89 2b       	or	r24, r25
    20bc:	11 f0       	breq	.+4      	; 0x20c2 <puts_P+0x5e>
    20be:	0f ef       	ldi	r16, 0xFF	; 255
    20c0:	1f ef       	ldi	r17, 0xFF	; 255
    20c2:	c8 01       	movw	r24, r16
    20c4:	df 91       	pop	r29
    20c6:	cf 91       	pop	r28
    20c8:	1f 91       	pop	r17
    20ca:	0f 91       	pop	r16
    20cc:	08 95       	ret

000020ce <vfprintf>:
    20ce:	2f 92       	push	r2
    20d0:	3f 92       	push	r3
    20d2:	4f 92       	push	r4
    20d4:	5f 92       	push	r5
    20d6:	6f 92       	push	r6
    20d8:	7f 92       	push	r7
    20da:	8f 92       	push	r8
    20dc:	9f 92       	push	r9
    20de:	af 92       	push	r10
    20e0:	bf 92       	push	r11
    20e2:	cf 92       	push	r12
    20e4:	df 92       	push	r13
    20e6:	ef 92       	push	r14
    20e8:	ff 92       	push	r15
    20ea:	0f 93       	push	r16
    20ec:	1f 93       	push	r17
    20ee:	df 93       	push	r29
    20f0:	cf 93       	push	r28
    20f2:	cd b7       	in	r28, 0x3d	; 61
    20f4:	de b7       	in	r29, 0x3e	; 62
    20f6:	2b 97       	sbiw	r28, 0x0b	; 11
    20f8:	0f b6       	in	r0, 0x3f	; 63
    20fa:	f8 94       	cli
    20fc:	de bf       	out	0x3e, r29	; 62
    20fe:	0f be       	out	0x3f, r0	; 63
    2100:	cd bf       	out	0x3d, r28	; 61
    2102:	3c 01       	movw	r6, r24
    2104:	2b 01       	movw	r4, r22
    2106:	5a 01       	movw	r10, r20
    2108:	fc 01       	movw	r30, r24
    210a:	17 82       	std	Z+7, r1	; 0x07
    210c:	16 82       	std	Z+6, r1	; 0x06
    210e:	83 81       	ldd	r24, Z+3	; 0x03
    2110:	81 fd       	sbrc	r24, 1
    2112:	03 c0       	rjmp	.+6      	; 0x211a <__stack+0x1b>
    2114:	6f ef       	ldi	r22, 0xFF	; 255
    2116:	7f ef       	ldi	r23, 0xFF	; 255
    2118:	b9 c1       	rjmp	.+882    	; 0x248c <__stack+0x38d>
    211a:	9a e0       	ldi	r25, 0x0A	; 10
    211c:	89 2e       	mov	r8, r25
    211e:	1e 01       	movw	r2, r28
    2120:	08 94       	sec
    2122:	21 1c       	adc	r2, r1
    2124:	31 1c       	adc	r3, r1
    2126:	f3 01       	movw	r30, r6
    2128:	23 81       	ldd	r18, Z+3	; 0x03
    212a:	f2 01       	movw	r30, r4
    212c:	23 fd       	sbrc	r18, 3
    212e:	85 91       	lpm	r24, Z+
    2130:	23 ff       	sbrs	r18, 3
    2132:	81 91       	ld	r24, Z+
    2134:	2f 01       	movw	r4, r30
    2136:	88 23       	and	r24, r24
    2138:	09 f4       	brne	.+2      	; 0x213c <__stack+0x3d>
    213a:	a5 c1       	rjmp	.+842    	; 0x2486 <__stack+0x387>
    213c:	85 32       	cpi	r24, 0x25	; 37
    213e:	39 f4       	brne	.+14     	; 0x214e <__stack+0x4f>
    2140:	23 fd       	sbrc	r18, 3
    2142:	85 91       	lpm	r24, Z+
    2144:	23 ff       	sbrs	r18, 3
    2146:	81 91       	ld	r24, Z+
    2148:	2f 01       	movw	r4, r30
    214a:	85 32       	cpi	r24, 0x25	; 37
    214c:	21 f4       	brne	.+8      	; 0x2156 <__stack+0x57>
    214e:	90 e0       	ldi	r25, 0x00	; 0
    2150:	b3 01       	movw	r22, r6
    2152:	cc d1       	rcall	.+920    	; 0x24ec <fputc>
    2154:	e8 cf       	rjmp	.-48     	; 0x2126 <__stack+0x27>
    2156:	98 2f       	mov	r25, r24
    2158:	ff 24       	eor	r15, r15
    215a:	ee 24       	eor	r14, r14
    215c:	99 24       	eor	r9, r9
    215e:	ff e1       	ldi	r31, 0x1F	; 31
    2160:	ff 15       	cp	r31, r15
    2162:	d0 f0       	brcs	.+52     	; 0x2198 <__stack+0x99>
    2164:	9b 32       	cpi	r25, 0x2B	; 43
    2166:	69 f0       	breq	.+26     	; 0x2182 <__stack+0x83>
    2168:	9c 32       	cpi	r25, 0x2C	; 44
    216a:	28 f4       	brcc	.+10     	; 0x2176 <__stack+0x77>
    216c:	90 32       	cpi	r25, 0x20	; 32
    216e:	59 f0       	breq	.+22     	; 0x2186 <__stack+0x87>
    2170:	93 32       	cpi	r25, 0x23	; 35
    2172:	91 f4       	brne	.+36     	; 0x2198 <__stack+0x99>
    2174:	0e c0       	rjmp	.+28     	; 0x2192 <__stack+0x93>
    2176:	9d 32       	cpi	r25, 0x2D	; 45
    2178:	49 f0       	breq	.+18     	; 0x218c <__stack+0x8d>
    217a:	90 33       	cpi	r25, 0x30	; 48
    217c:	69 f4       	brne	.+26     	; 0x2198 <__stack+0x99>
    217e:	41 e0       	ldi	r20, 0x01	; 1
    2180:	24 c0       	rjmp	.+72     	; 0x21ca <__stack+0xcb>
    2182:	52 e0       	ldi	r21, 0x02	; 2
    2184:	f5 2a       	or	r15, r21
    2186:	84 e0       	ldi	r24, 0x04	; 4
    2188:	f8 2a       	or	r15, r24
    218a:	28 c0       	rjmp	.+80     	; 0x21dc <__stack+0xdd>
    218c:	98 e0       	ldi	r25, 0x08	; 8
    218e:	f9 2a       	or	r15, r25
    2190:	25 c0       	rjmp	.+74     	; 0x21dc <__stack+0xdd>
    2192:	e0 e1       	ldi	r30, 0x10	; 16
    2194:	fe 2a       	or	r15, r30
    2196:	22 c0       	rjmp	.+68     	; 0x21dc <__stack+0xdd>
    2198:	f7 fc       	sbrc	r15, 7
    219a:	29 c0       	rjmp	.+82     	; 0x21ee <__stack+0xef>
    219c:	89 2f       	mov	r24, r25
    219e:	80 53       	subi	r24, 0x30	; 48
    21a0:	8a 30       	cpi	r24, 0x0A	; 10
    21a2:	70 f4       	brcc	.+28     	; 0x21c0 <__stack+0xc1>
    21a4:	f6 fe       	sbrs	r15, 6
    21a6:	05 c0       	rjmp	.+10     	; 0x21b2 <__stack+0xb3>
    21a8:	98 9c       	mul	r9, r8
    21aa:	90 2c       	mov	r9, r0
    21ac:	11 24       	eor	r1, r1
    21ae:	98 0e       	add	r9, r24
    21b0:	15 c0       	rjmp	.+42     	; 0x21dc <__stack+0xdd>
    21b2:	e8 9c       	mul	r14, r8
    21b4:	e0 2c       	mov	r14, r0
    21b6:	11 24       	eor	r1, r1
    21b8:	e8 0e       	add	r14, r24
    21ba:	f0 e2       	ldi	r31, 0x20	; 32
    21bc:	ff 2a       	or	r15, r31
    21be:	0e c0       	rjmp	.+28     	; 0x21dc <__stack+0xdd>
    21c0:	9e 32       	cpi	r25, 0x2E	; 46
    21c2:	29 f4       	brne	.+10     	; 0x21ce <__stack+0xcf>
    21c4:	f6 fc       	sbrc	r15, 6
    21c6:	5f c1       	rjmp	.+702    	; 0x2486 <__stack+0x387>
    21c8:	40 e4       	ldi	r20, 0x40	; 64
    21ca:	f4 2a       	or	r15, r20
    21cc:	07 c0       	rjmp	.+14     	; 0x21dc <__stack+0xdd>
    21ce:	9c 36       	cpi	r25, 0x6C	; 108
    21d0:	19 f4       	brne	.+6      	; 0x21d8 <__stack+0xd9>
    21d2:	50 e8       	ldi	r21, 0x80	; 128
    21d4:	f5 2a       	or	r15, r21
    21d6:	02 c0       	rjmp	.+4      	; 0x21dc <__stack+0xdd>
    21d8:	98 36       	cpi	r25, 0x68	; 104
    21da:	49 f4       	brne	.+18     	; 0x21ee <__stack+0xef>
    21dc:	f2 01       	movw	r30, r4
    21de:	23 fd       	sbrc	r18, 3
    21e0:	95 91       	lpm	r25, Z+
    21e2:	23 ff       	sbrs	r18, 3
    21e4:	91 91       	ld	r25, Z+
    21e6:	2f 01       	movw	r4, r30
    21e8:	99 23       	and	r25, r25
    21ea:	09 f0       	breq	.+2      	; 0x21ee <__stack+0xef>
    21ec:	b8 cf       	rjmp	.-144    	; 0x215e <__stack+0x5f>
    21ee:	89 2f       	mov	r24, r25
    21f0:	85 54       	subi	r24, 0x45	; 69
    21f2:	83 30       	cpi	r24, 0x03	; 3
    21f4:	18 f0       	brcs	.+6      	; 0x21fc <__stack+0xfd>
    21f6:	80 52       	subi	r24, 0x20	; 32
    21f8:	83 30       	cpi	r24, 0x03	; 3
    21fa:	38 f4       	brcc	.+14     	; 0x220a <__stack+0x10b>
    21fc:	44 e0       	ldi	r20, 0x04	; 4
    21fe:	50 e0       	ldi	r21, 0x00	; 0
    2200:	a4 0e       	add	r10, r20
    2202:	b5 1e       	adc	r11, r21
    2204:	5f e3       	ldi	r21, 0x3F	; 63
    2206:	59 83       	std	Y+1, r21	; 0x01
    2208:	0f c0       	rjmp	.+30     	; 0x2228 <__stack+0x129>
    220a:	93 36       	cpi	r25, 0x63	; 99
    220c:	31 f0       	breq	.+12     	; 0x221a <__stack+0x11b>
    220e:	93 37       	cpi	r25, 0x73	; 115
    2210:	79 f0       	breq	.+30     	; 0x2230 <__stack+0x131>
    2212:	93 35       	cpi	r25, 0x53	; 83
    2214:	09 f0       	breq	.+2      	; 0x2218 <__stack+0x119>
    2216:	52 c0       	rjmp	.+164    	; 0x22bc <__stack+0x1bd>
    2218:	1f c0       	rjmp	.+62     	; 0x2258 <__stack+0x159>
    221a:	f5 01       	movw	r30, r10
    221c:	80 81       	ld	r24, Z
    221e:	89 83       	std	Y+1, r24	; 0x01
    2220:	42 e0       	ldi	r20, 0x02	; 2
    2222:	50 e0       	ldi	r21, 0x00	; 0
    2224:	a4 0e       	add	r10, r20
    2226:	b5 1e       	adc	r11, r21
    2228:	61 01       	movw	r12, r2
    222a:	01 e0       	ldi	r16, 0x01	; 1
    222c:	10 e0       	ldi	r17, 0x00	; 0
    222e:	11 c0       	rjmp	.+34     	; 0x2252 <__stack+0x153>
    2230:	f5 01       	movw	r30, r10
    2232:	c0 80       	ld	r12, Z
    2234:	d1 80       	ldd	r13, Z+1	; 0x01
    2236:	f6 fc       	sbrc	r15, 6
    2238:	03 c0       	rjmp	.+6      	; 0x2240 <__stack+0x141>
    223a:	6f ef       	ldi	r22, 0xFF	; 255
    223c:	7f ef       	ldi	r23, 0xFF	; 255
    223e:	02 c0       	rjmp	.+4      	; 0x2244 <__stack+0x145>
    2240:	69 2d       	mov	r22, r9
    2242:	70 e0       	ldi	r23, 0x00	; 0
    2244:	42 e0       	ldi	r20, 0x02	; 2
    2246:	50 e0       	ldi	r21, 0x00	; 0
    2248:	a4 0e       	add	r10, r20
    224a:	b5 1e       	adc	r11, r21
    224c:	c6 01       	movw	r24, r12
    224e:	43 d1       	rcall	.+646    	; 0x24d6 <strnlen>
    2250:	8c 01       	movw	r16, r24
    2252:	5f e7       	ldi	r21, 0x7F	; 127
    2254:	f5 22       	and	r15, r21
    2256:	13 c0       	rjmp	.+38     	; 0x227e <__stack+0x17f>
    2258:	f5 01       	movw	r30, r10
    225a:	c0 80       	ld	r12, Z
    225c:	d1 80       	ldd	r13, Z+1	; 0x01
    225e:	f6 fc       	sbrc	r15, 6
    2260:	03 c0       	rjmp	.+6      	; 0x2268 <__stack+0x169>
    2262:	6f ef       	ldi	r22, 0xFF	; 255
    2264:	7f ef       	ldi	r23, 0xFF	; 255
    2266:	02 c0       	rjmp	.+4      	; 0x226c <__stack+0x16d>
    2268:	69 2d       	mov	r22, r9
    226a:	70 e0       	ldi	r23, 0x00	; 0
    226c:	42 e0       	ldi	r20, 0x02	; 2
    226e:	50 e0       	ldi	r21, 0x00	; 0
    2270:	a4 0e       	add	r10, r20
    2272:	b5 1e       	adc	r11, r21
    2274:	c6 01       	movw	r24, r12
    2276:	24 d1       	rcall	.+584    	; 0x24c0 <strnlen_P>
    2278:	8c 01       	movw	r16, r24
    227a:	50 e8       	ldi	r21, 0x80	; 128
    227c:	f5 2a       	or	r15, r21
    227e:	f3 fe       	sbrs	r15, 3
    2280:	06 c0       	rjmp	.+12     	; 0x228e <__stack+0x18f>
    2282:	18 c0       	rjmp	.+48     	; 0x22b4 <__stack+0x1b5>
    2284:	80 e2       	ldi	r24, 0x20	; 32
    2286:	90 e0       	ldi	r25, 0x00	; 0
    2288:	b3 01       	movw	r22, r6
    228a:	30 d1       	rcall	.+608    	; 0x24ec <fputc>
    228c:	ea 94       	dec	r14
    228e:	8e 2d       	mov	r24, r14
    2290:	90 e0       	ldi	r25, 0x00	; 0
    2292:	08 17       	cp	r16, r24
    2294:	19 07       	cpc	r17, r25
    2296:	b0 f3       	brcs	.-20     	; 0x2284 <__stack+0x185>
    2298:	0d c0       	rjmp	.+26     	; 0x22b4 <__stack+0x1b5>
    229a:	f6 01       	movw	r30, r12
    229c:	f7 fc       	sbrc	r15, 7
    229e:	85 91       	lpm	r24, Z+
    22a0:	f7 fe       	sbrs	r15, 7
    22a2:	81 91       	ld	r24, Z+
    22a4:	6f 01       	movw	r12, r30
    22a6:	90 e0       	ldi	r25, 0x00	; 0
    22a8:	b3 01       	movw	r22, r6
    22aa:	20 d1       	rcall	.+576    	; 0x24ec <fputc>
    22ac:	e1 10       	cpse	r14, r1
    22ae:	ea 94       	dec	r14
    22b0:	01 50       	subi	r16, 0x01	; 1
    22b2:	10 40       	sbci	r17, 0x00	; 0
    22b4:	01 15       	cp	r16, r1
    22b6:	11 05       	cpc	r17, r1
    22b8:	81 f7       	brne	.-32     	; 0x229a <__stack+0x19b>
    22ba:	e2 c0       	rjmp	.+452    	; 0x2480 <__stack+0x381>
    22bc:	94 36       	cpi	r25, 0x64	; 100
    22be:	11 f0       	breq	.+4      	; 0x22c4 <__stack+0x1c5>
    22c0:	99 36       	cpi	r25, 0x69	; 105
    22c2:	61 f5       	brne	.+88     	; 0x231c <__stack+0x21d>
    22c4:	f7 fe       	sbrs	r15, 7
    22c6:	08 c0       	rjmp	.+16     	; 0x22d8 <__stack+0x1d9>
    22c8:	f5 01       	movw	r30, r10
    22ca:	20 81       	ld	r18, Z
    22cc:	31 81       	ldd	r19, Z+1	; 0x01
    22ce:	42 81       	ldd	r20, Z+2	; 0x02
    22d0:	53 81       	ldd	r21, Z+3	; 0x03
    22d2:	84 e0       	ldi	r24, 0x04	; 4
    22d4:	90 e0       	ldi	r25, 0x00	; 0
    22d6:	0a c0       	rjmp	.+20     	; 0x22ec <__stack+0x1ed>
    22d8:	f5 01       	movw	r30, r10
    22da:	80 81       	ld	r24, Z
    22dc:	91 81       	ldd	r25, Z+1	; 0x01
    22de:	9c 01       	movw	r18, r24
    22e0:	44 27       	eor	r20, r20
    22e2:	37 fd       	sbrc	r19, 7
    22e4:	40 95       	com	r20
    22e6:	54 2f       	mov	r21, r20
    22e8:	82 e0       	ldi	r24, 0x02	; 2
    22ea:	90 e0       	ldi	r25, 0x00	; 0
    22ec:	a8 0e       	add	r10, r24
    22ee:	b9 1e       	adc	r11, r25
    22f0:	9f e6       	ldi	r25, 0x6F	; 111
    22f2:	f9 22       	and	r15, r25
    22f4:	57 ff       	sbrs	r21, 7
    22f6:	09 c0       	rjmp	.+18     	; 0x230a <__stack+0x20b>
    22f8:	50 95       	com	r21
    22fa:	40 95       	com	r20
    22fc:	30 95       	com	r19
    22fe:	21 95       	neg	r18
    2300:	3f 4f       	sbci	r19, 0xFF	; 255
    2302:	4f 4f       	sbci	r20, 0xFF	; 255
    2304:	5f 4f       	sbci	r21, 0xFF	; 255
    2306:	e0 e8       	ldi	r30, 0x80	; 128
    2308:	fe 2a       	or	r15, r30
    230a:	ca 01       	movw	r24, r20
    230c:	b9 01       	movw	r22, r18
    230e:	a1 01       	movw	r20, r2
    2310:	2a e0       	ldi	r18, 0x0A	; 10
    2312:	30 e0       	ldi	r19, 0x00	; 0
    2314:	17 d1       	rcall	.+558    	; 0x2544 <__ultoa_invert>
    2316:	d8 2e       	mov	r13, r24
    2318:	d2 18       	sub	r13, r2
    231a:	3f c0       	rjmp	.+126    	; 0x239a <__stack+0x29b>
    231c:	95 37       	cpi	r25, 0x75	; 117
    231e:	29 f4       	brne	.+10     	; 0x232a <__stack+0x22b>
    2320:	1f 2d       	mov	r17, r15
    2322:	1f 7e       	andi	r17, 0xEF	; 239
    2324:	2a e0       	ldi	r18, 0x0A	; 10
    2326:	30 e0       	ldi	r19, 0x00	; 0
    2328:	1d c0       	rjmp	.+58     	; 0x2364 <__stack+0x265>
    232a:	1f 2d       	mov	r17, r15
    232c:	19 7f       	andi	r17, 0xF9	; 249
    232e:	9f 36       	cpi	r25, 0x6F	; 111
    2330:	61 f0       	breq	.+24     	; 0x234a <__stack+0x24b>
    2332:	90 37       	cpi	r25, 0x70	; 112
    2334:	20 f4       	brcc	.+8      	; 0x233e <__stack+0x23f>
    2336:	98 35       	cpi	r25, 0x58	; 88
    2338:	09 f0       	breq	.+2      	; 0x233c <__stack+0x23d>
    233a:	a5 c0       	rjmp	.+330    	; 0x2486 <__stack+0x387>
    233c:	0f c0       	rjmp	.+30     	; 0x235c <__stack+0x25d>
    233e:	90 37       	cpi	r25, 0x70	; 112
    2340:	39 f0       	breq	.+14     	; 0x2350 <__stack+0x251>
    2342:	98 37       	cpi	r25, 0x78	; 120
    2344:	09 f0       	breq	.+2      	; 0x2348 <__stack+0x249>
    2346:	9f c0       	rjmp	.+318    	; 0x2486 <__stack+0x387>
    2348:	04 c0       	rjmp	.+8      	; 0x2352 <__stack+0x253>
    234a:	28 e0       	ldi	r18, 0x08	; 8
    234c:	30 e0       	ldi	r19, 0x00	; 0
    234e:	0a c0       	rjmp	.+20     	; 0x2364 <__stack+0x265>
    2350:	10 61       	ori	r17, 0x10	; 16
    2352:	14 fd       	sbrc	r17, 4
    2354:	14 60       	ori	r17, 0x04	; 4
    2356:	20 e1       	ldi	r18, 0x10	; 16
    2358:	30 e0       	ldi	r19, 0x00	; 0
    235a:	04 c0       	rjmp	.+8      	; 0x2364 <__stack+0x265>
    235c:	14 fd       	sbrc	r17, 4
    235e:	16 60       	ori	r17, 0x06	; 6
    2360:	20 e1       	ldi	r18, 0x10	; 16
    2362:	32 e0       	ldi	r19, 0x02	; 2
    2364:	17 ff       	sbrs	r17, 7
    2366:	08 c0       	rjmp	.+16     	; 0x2378 <__stack+0x279>
    2368:	f5 01       	movw	r30, r10
    236a:	60 81       	ld	r22, Z
    236c:	71 81       	ldd	r23, Z+1	; 0x01
    236e:	82 81       	ldd	r24, Z+2	; 0x02
    2370:	93 81       	ldd	r25, Z+3	; 0x03
    2372:	44 e0       	ldi	r20, 0x04	; 4
    2374:	50 e0       	ldi	r21, 0x00	; 0
    2376:	08 c0       	rjmp	.+16     	; 0x2388 <__stack+0x289>
    2378:	f5 01       	movw	r30, r10
    237a:	80 81       	ld	r24, Z
    237c:	91 81       	ldd	r25, Z+1	; 0x01
    237e:	bc 01       	movw	r22, r24
    2380:	80 e0       	ldi	r24, 0x00	; 0
    2382:	90 e0       	ldi	r25, 0x00	; 0
    2384:	42 e0       	ldi	r20, 0x02	; 2
    2386:	50 e0       	ldi	r21, 0x00	; 0
    2388:	a4 0e       	add	r10, r20
    238a:	b5 1e       	adc	r11, r21
    238c:	a1 01       	movw	r20, r2
    238e:	da d0       	rcall	.+436    	; 0x2544 <__ultoa_invert>
    2390:	d8 2e       	mov	r13, r24
    2392:	d2 18       	sub	r13, r2
    2394:	8f e7       	ldi	r24, 0x7F	; 127
    2396:	f8 2e       	mov	r15, r24
    2398:	f1 22       	and	r15, r17
    239a:	f6 fe       	sbrs	r15, 6
    239c:	0b c0       	rjmp	.+22     	; 0x23b4 <__stack+0x2b5>
    239e:	5e ef       	ldi	r21, 0xFE	; 254
    23a0:	f5 22       	and	r15, r21
    23a2:	d9 14       	cp	r13, r9
    23a4:	38 f4       	brcc	.+14     	; 0x23b4 <__stack+0x2b5>
    23a6:	f4 fe       	sbrs	r15, 4
    23a8:	07 c0       	rjmp	.+14     	; 0x23b8 <__stack+0x2b9>
    23aa:	f2 fc       	sbrc	r15, 2
    23ac:	05 c0       	rjmp	.+10     	; 0x23b8 <__stack+0x2b9>
    23ae:	8f ee       	ldi	r24, 0xEF	; 239
    23b0:	f8 22       	and	r15, r24
    23b2:	02 c0       	rjmp	.+4      	; 0x23b8 <__stack+0x2b9>
    23b4:	1d 2d       	mov	r17, r13
    23b6:	01 c0       	rjmp	.+2      	; 0x23ba <__stack+0x2bb>
    23b8:	19 2d       	mov	r17, r9
    23ba:	f4 fe       	sbrs	r15, 4
    23bc:	0d c0       	rjmp	.+26     	; 0x23d8 <__stack+0x2d9>
    23be:	fe 01       	movw	r30, r28
    23c0:	ed 0d       	add	r30, r13
    23c2:	f1 1d       	adc	r31, r1
    23c4:	80 81       	ld	r24, Z
    23c6:	80 33       	cpi	r24, 0x30	; 48
    23c8:	19 f4       	brne	.+6      	; 0x23d0 <__stack+0x2d1>
    23ca:	99 ee       	ldi	r25, 0xE9	; 233
    23cc:	f9 22       	and	r15, r25
    23ce:	08 c0       	rjmp	.+16     	; 0x23e0 <__stack+0x2e1>
    23d0:	1f 5f       	subi	r17, 0xFF	; 255
    23d2:	f2 fe       	sbrs	r15, 2
    23d4:	05 c0       	rjmp	.+10     	; 0x23e0 <__stack+0x2e1>
    23d6:	03 c0       	rjmp	.+6      	; 0x23de <__stack+0x2df>
    23d8:	8f 2d       	mov	r24, r15
    23da:	86 78       	andi	r24, 0x86	; 134
    23dc:	09 f0       	breq	.+2      	; 0x23e0 <__stack+0x2e1>
    23de:	1f 5f       	subi	r17, 0xFF	; 255
    23e0:	0f 2d       	mov	r16, r15
    23e2:	f3 fc       	sbrc	r15, 3
    23e4:	13 c0       	rjmp	.+38     	; 0x240c <__stack+0x30d>
    23e6:	f0 fe       	sbrs	r15, 0
    23e8:	0e c0       	rjmp	.+28     	; 0x2406 <__stack+0x307>
    23ea:	1e 15       	cp	r17, r14
    23ec:	10 f0       	brcs	.+4      	; 0x23f2 <__stack+0x2f3>
    23ee:	9d 2c       	mov	r9, r13
    23f0:	0a c0       	rjmp	.+20     	; 0x2406 <__stack+0x307>
    23f2:	9d 2c       	mov	r9, r13
    23f4:	9e 0c       	add	r9, r14
    23f6:	91 1a       	sub	r9, r17
    23f8:	1e 2d       	mov	r17, r14
    23fa:	05 c0       	rjmp	.+10     	; 0x2406 <__stack+0x307>
    23fc:	80 e2       	ldi	r24, 0x20	; 32
    23fe:	90 e0       	ldi	r25, 0x00	; 0
    2400:	b3 01       	movw	r22, r6
    2402:	74 d0       	rcall	.+232    	; 0x24ec <fputc>
    2404:	1f 5f       	subi	r17, 0xFF	; 255
    2406:	1e 15       	cp	r17, r14
    2408:	c8 f3       	brcs	.-14     	; 0x23fc <__stack+0x2fd>
    240a:	04 c0       	rjmp	.+8      	; 0x2414 <__stack+0x315>
    240c:	1e 15       	cp	r17, r14
    240e:	10 f4       	brcc	.+4      	; 0x2414 <__stack+0x315>
    2410:	e1 1a       	sub	r14, r17
    2412:	01 c0       	rjmp	.+2      	; 0x2416 <__stack+0x317>
    2414:	ee 24       	eor	r14, r14
    2416:	04 ff       	sbrs	r16, 4
    2418:	0e c0       	rjmp	.+28     	; 0x2436 <__stack+0x337>
    241a:	80 e3       	ldi	r24, 0x30	; 48
    241c:	90 e0       	ldi	r25, 0x00	; 0
    241e:	b3 01       	movw	r22, r6
    2420:	65 d0       	rcall	.+202    	; 0x24ec <fputc>
    2422:	02 ff       	sbrs	r16, 2
    2424:	1b c0       	rjmp	.+54     	; 0x245c <__stack+0x35d>
    2426:	01 fd       	sbrc	r16, 1
    2428:	03 c0       	rjmp	.+6      	; 0x2430 <__stack+0x331>
    242a:	88 e7       	ldi	r24, 0x78	; 120
    242c:	90 e0       	ldi	r25, 0x00	; 0
    242e:	0e c0       	rjmp	.+28     	; 0x244c <__stack+0x34d>
    2430:	88 e5       	ldi	r24, 0x58	; 88
    2432:	90 e0       	ldi	r25, 0x00	; 0
    2434:	0b c0       	rjmp	.+22     	; 0x244c <__stack+0x34d>
    2436:	80 2f       	mov	r24, r16
    2438:	86 78       	andi	r24, 0x86	; 134
    243a:	81 f0       	breq	.+32     	; 0x245c <__stack+0x35d>
    243c:	01 ff       	sbrs	r16, 1
    243e:	02 c0       	rjmp	.+4      	; 0x2444 <__stack+0x345>
    2440:	8b e2       	ldi	r24, 0x2B	; 43
    2442:	01 c0       	rjmp	.+2      	; 0x2446 <__stack+0x347>
    2444:	80 e2       	ldi	r24, 0x20	; 32
    2446:	f7 fc       	sbrc	r15, 7
    2448:	8d e2       	ldi	r24, 0x2D	; 45
    244a:	90 e0       	ldi	r25, 0x00	; 0
    244c:	b3 01       	movw	r22, r6
    244e:	4e d0       	rcall	.+156    	; 0x24ec <fputc>
    2450:	05 c0       	rjmp	.+10     	; 0x245c <__stack+0x35d>
    2452:	80 e3       	ldi	r24, 0x30	; 48
    2454:	90 e0       	ldi	r25, 0x00	; 0
    2456:	b3 01       	movw	r22, r6
    2458:	49 d0       	rcall	.+146    	; 0x24ec <fputc>
    245a:	9a 94       	dec	r9
    245c:	d9 14       	cp	r13, r9
    245e:	c8 f3       	brcs	.-14     	; 0x2452 <__stack+0x353>
    2460:	da 94       	dec	r13
    2462:	f1 01       	movw	r30, r2
    2464:	ed 0d       	add	r30, r13
    2466:	f1 1d       	adc	r31, r1
    2468:	80 81       	ld	r24, Z
    246a:	90 e0       	ldi	r25, 0x00	; 0
    246c:	b3 01       	movw	r22, r6
    246e:	3e d0       	rcall	.+124    	; 0x24ec <fputc>
    2470:	dd 20       	and	r13, r13
    2472:	b1 f7       	brne	.-20     	; 0x2460 <__stack+0x361>
    2474:	05 c0       	rjmp	.+10     	; 0x2480 <__stack+0x381>
    2476:	80 e2       	ldi	r24, 0x20	; 32
    2478:	90 e0       	ldi	r25, 0x00	; 0
    247a:	b3 01       	movw	r22, r6
    247c:	37 d0       	rcall	.+110    	; 0x24ec <fputc>
    247e:	ea 94       	dec	r14
    2480:	ee 20       	and	r14, r14
    2482:	c9 f7       	brne	.-14     	; 0x2476 <__stack+0x377>
    2484:	50 ce       	rjmp	.-864    	; 0x2126 <__stack+0x27>
    2486:	f3 01       	movw	r30, r6
    2488:	66 81       	ldd	r22, Z+6	; 0x06
    248a:	77 81       	ldd	r23, Z+7	; 0x07
    248c:	cb 01       	movw	r24, r22
    248e:	2b 96       	adiw	r28, 0x0b	; 11
    2490:	0f b6       	in	r0, 0x3f	; 63
    2492:	f8 94       	cli
    2494:	de bf       	out	0x3e, r29	; 62
    2496:	0f be       	out	0x3f, r0	; 63
    2498:	cd bf       	out	0x3d, r28	; 61
    249a:	cf 91       	pop	r28
    249c:	df 91       	pop	r29
    249e:	1f 91       	pop	r17
    24a0:	0f 91       	pop	r16
    24a2:	ff 90       	pop	r15
    24a4:	ef 90       	pop	r14
    24a6:	df 90       	pop	r13
    24a8:	cf 90       	pop	r12
    24aa:	bf 90       	pop	r11
    24ac:	af 90       	pop	r10
    24ae:	9f 90       	pop	r9
    24b0:	8f 90       	pop	r8
    24b2:	7f 90       	pop	r7
    24b4:	6f 90       	pop	r6
    24b6:	5f 90       	pop	r5
    24b8:	4f 90       	pop	r4
    24ba:	3f 90       	pop	r3
    24bc:	2f 90       	pop	r2
    24be:	08 95       	ret

000024c0 <strnlen_P>:
    24c0:	fc 01       	movw	r30, r24
    24c2:	05 90       	lpm	r0, Z+
    24c4:	61 50       	subi	r22, 0x01	; 1
    24c6:	70 40       	sbci	r23, 0x00	; 0
    24c8:	01 10       	cpse	r0, r1
    24ca:	d8 f7       	brcc	.-10     	; 0x24c2 <strnlen_P+0x2>
    24cc:	80 95       	com	r24
    24ce:	90 95       	com	r25
    24d0:	8e 0f       	add	r24, r30
    24d2:	9f 1f       	adc	r25, r31
    24d4:	08 95       	ret

000024d6 <strnlen>:
    24d6:	fc 01       	movw	r30, r24
    24d8:	61 50       	subi	r22, 0x01	; 1
    24da:	70 40       	sbci	r23, 0x00	; 0
    24dc:	01 90       	ld	r0, Z+
    24de:	01 10       	cpse	r0, r1
    24e0:	d8 f7       	brcc	.-10     	; 0x24d8 <strnlen+0x2>
    24e2:	80 95       	com	r24
    24e4:	90 95       	com	r25
    24e6:	8e 0f       	add	r24, r30
    24e8:	9f 1f       	adc	r25, r31
    24ea:	08 95       	ret

000024ec <fputc>:
    24ec:	0f 93       	push	r16
    24ee:	1f 93       	push	r17
    24f0:	cf 93       	push	r28
    24f2:	df 93       	push	r29
    24f4:	8c 01       	movw	r16, r24
    24f6:	eb 01       	movw	r28, r22
    24f8:	8b 81       	ldd	r24, Y+3	; 0x03
    24fa:	81 ff       	sbrs	r24, 1
    24fc:	1b c0       	rjmp	.+54     	; 0x2534 <fputc+0x48>
    24fe:	82 ff       	sbrs	r24, 2
    2500:	0d c0       	rjmp	.+26     	; 0x251c <fputc+0x30>
    2502:	2e 81       	ldd	r18, Y+6	; 0x06
    2504:	3f 81       	ldd	r19, Y+7	; 0x07
    2506:	8c 81       	ldd	r24, Y+4	; 0x04
    2508:	9d 81       	ldd	r25, Y+5	; 0x05
    250a:	28 17       	cp	r18, r24
    250c:	39 07       	cpc	r19, r25
    250e:	64 f4       	brge	.+24     	; 0x2528 <fputc+0x3c>
    2510:	e8 81       	ld	r30, Y
    2512:	f9 81       	ldd	r31, Y+1	; 0x01
    2514:	01 93       	st	Z+, r16
    2516:	f9 83       	std	Y+1, r31	; 0x01
    2518:	e8 83       	st	Y, r30
    251a:	06 c0       	rjmp	.+12     	; 0x2528 <fputc+0x3c>
    251c:	e8 85       	ldd	r30, Y+8	; 0x08
    251e:	f9 85       	ldd	r31, Y+9	; 0x09
    2520:	80 2f       	mov	r24, r16
    2522:	09 95       	icall
    2524:	89 2b       	or	r24, r25
    2526:	31 f4       	brne	.+12     	; 0x2534 <fputc+0x48>
    2528:	8e 81       	ldd	r24, Y+6	; 0x06
    252a:	9f 81       	ldd	r25, Y+7	; 0x07
    252c:	01 96       	adiw	r24, 0x01	; 1
    252e:	9f 83       	std	Y+7, r25	; 0x07
    2530:	8e 83       	std	Y+6, r24	; 0x06
    2532:	02 c0       	rjmp	.+4      	; 0x2538 <fputc+0x4c>
    2534:	0f ef       	ldi	r16, 0xFF	; 255
    2536:	1f ef       	ldi	r17, 0xFF	; 255
    2538:	c8 01       	movw	r24, r16
    253a:	df 91       	pop	r29
    253c:	cf 91       	pop	r28
    253e:	1f 91       	pop	r17
    2540:	0f 91       	pop	r16
    2542:	08 95       	ret

00002544 <__ultoa_invert>:
    2544:	fa 01       	movw	r30, r20
    2546:	aa 27       	eor	r26, r26
    2548:	28 30       	cpi	r18, 0x08	; 8
    254a:	51 f1       	breq	.+84     	; 0x25a0 <__ultoa_invert+0x5c>
    254c:	20 31       	cpi	r18, 0x10	; 16
    254e:	81 f1       	breq	.+96     	; 0x25b0 <__ultoa_invert+0x6c>
    2550:	e8 94       	clt
    2552:	6f 93       	push	r22
    2554:	6e 7f       	andi	r22, 0xFE	; 254
    2556:	6e 5f       	subi	r22, 0xFE	; 254
    2558:	7f 4f       	sbci	r23, 0xFF	; 255
    255a:	8f 4f       	sbci	r24, 0xFF	; 255
    255c:	9f 4f       	sbci	r25, 0xFF	; 255
    255e:	af 4f       	sbci	r26, 0xFF	; 255
    2560:	b1 e0       	ldi	r27, 0x01	; 1
    2562:	3e d0       	rcall	.+124    	; 0x25e0 <__ultoa_invert+0x9c>
    2564:	b4 e0       	ldi	r27, 0x04	; 4
    2566:	3c d0       	rcall	.+120    	; 0x25e0 <__ultoa_invert+0x9c>
    2568:	67 0f       	add	r22, r23
    256a:	78 1f       	adc	r23, r24
    256c:	89 1f       	adc	r24, r25
    256e:	9a 1f       	adc	r25, r26
    2570:	a1 1d       	adc	r26, r1
    2572:	68 0f       	add	r22, r24
    2574:	79 1f       	adc	r23, r25
    2576:	8a 1f       	adc	r24, r26
    2578:	91 1d       	adc	r25, r1
    257a:	a1 1d       	adc	r26, r1
    257c:	6a 0f       	add	r22, r26
    257e:	71 1d       	adc	r23, r1
    2580:	81 1d       	adc	r24, r1
    2582:	91 1d       	adc	r25, r1
    2584:	a1 1d       	adc	r26, r1
    2586:	20 d0       	rcall	.+64     	; 0x25c8 <__ultoa_invert+0x84>
    2588:	09 f4       	brne	.+2      	; 0x258c <__ultoa_invert+0x48>
    258a:	68 94       	set
    258c:	3f 91       	pop	r19
    258e:	2a e0       	ldi	r18, 0x0A	; 10
    2590:	26 9f       	mul	r18, r22
    2592:	11 24       	eor	r1, r1
    2594:	30 19       	sub	r19, r0
    2596:	30 5d       	subi	r19, 0xD0	; 208
    2598:	31 93       	st	Z+, r19
    259a:	de f6       	brtc	.-74     	; 0x2552 <__ultoa_invert+0xe>
    259c:	cf 01       	movw	r24, r30
    259e:	08 95       	ret
    25a0:	46 2f       	mov	r20, r22
    25a2:	47 70       	andi	r20, 0x07	; 7
    25a4:	40 5d       	subi	r20, 0xD0	; 208
    25a6:	41 93       	st	Z+, r20
    25a8:	b3 e0       	ldi	r27, 0x03	; 3
    25aa:	0f d0       	rcall	.+30     	; 0x25ca <__ultoa_invert+0x86>
    25ac:	c9 f7       	brne	.-14     	; 0x25a0 <__ultoa_invert+0x5c>
    25ae:	f6 cf       	rjmp	.-20     	; 0x259c <__ultoa_invert+0x58>
    25b0:	46 2f       	mov	r20, r22
    25b2:	4f 70       	andi	r20, 0x0F	; 15
    25b4:	40 5d       	subi	r20, 0xD0	; 208
    25b6:	4a 33       	cpi	r20, 0x3A	; 58
    25b8:	18 f0       	brcs	.+6      	; 0x25c0 <__ultoa_invert+0x7c>
    25ba:	49 5d       	subi	r20, 0xD9	; 217
    25bc:	31 fd       	sbrc	r19, 1
    25be:	40 52       	subi	r20, 0x20	; 32
    25c0:	41 93       	st	Z+, r20
    25c2:	02 d0       	rcall	.+4      	; 0x25c8 <__ultoa_invert+0x84>
    25c4:	a9 f7       	brne	.-22     	; 0x25b0 <__ultoa_invert+0x6c>
    25c6:	ea cf       	rjmp	.-44     	; 0x259c <__ultoa_invert+0x58>
    25c8:	b4 e0       	ldi	r27, 0x04	; 4
    25ca:	a6 95       	lsr	r26
    25cc:	97 95       	ror	r25
    25ce:	87 95       	ror	r24
    25d0:	77 95       	ror	r23
    25d2:	67 95       	ror	r22
    25d4:	ba 95       	dec	r27
    25d6:	c9 f7       	brne	.-14     	; 0x25ca <__ultoa_invert+0x86>
    25d8:	00 97       	sbiw	r24, 0x00	; 0
    25da:	61 05       	cpc	r22, r1
    25dc:	71 05       	cpc	r23, r1
    25de:	08 95       	ret
    25e0:	9b 01       	movw	r18, r22
    25e2:	ac 01       	movw	r20, r24
    25e4:	0a 2e       	mov	r0, r26
    25e6:	06 94       	lsr	r0
    25e8:	57 95       	ror	r21
    25ea:	47 95       	ror	r20
    25ec:	37 95       	ror	r19
    25ee:	27 95       	ror	r18
    25f0:	ba 95       	dec	r27
    25f2:	c9 f7       	brne	.-14     	; 0x25e6 <__ultoa_invert+0xa2>
    25f4:	62 0f       	add	r22, r18
    25f6:	73 1f       	adc	r23, r19
    25f8:	84 1f       	adc	r24, r20
    25fa:	95 1f       	adc	r25, r21
    25fc:	a0 1d       	adc	r26, r0
    25fe:	08 95       	ret

00002600 <_exit>:
    2600:	f8 94       	cli

00002602 <__stop_program>:
    2602:	ff cf       	rjmp	.-2      	; 0x2602 <__stop_program>
